LX51 LINKER/LOCATER V4.17                                                               09/19/2014  22:51:52  PAGE 1


LX51 LINKER/LOCATER V4.17, INVOKED BY:
C:\KEIL\C51\BIN\LX51.EXE STARTUP.OBJ, APP.OBJ TO APP PRINT (app.map) CLASSES (XDATA (X:0XE000-X:0XFF00), IDATA (I:0-I:0X
>> FF)) REGFILE (app.reg) 


CPU MODE:     8051 MODE
MEMORY MODEL: LARGE


INPUT MODULES INCLUDED:
  STARTUP.OBJ (?C_STARTUP)
         COMMENT TYPE 1: A51 / ASM51 Assembler
  APP.OBJ (APP)
         COMMENT TYPE 1: C51 Compiler
  C:\KEIL\C51\LIB\C51L.LIB (?C_INIT)
         COMMENT TYPE 1: A51 / ASM51 Assembler
  C:\KEIL\C51\LIB\C51L.LIB (?C?COPY)
         COMMENT TYPE 1: A51 / ASM51 Assembler
  C:\KEIL\C51\LIB\C51L.LIB (?C?CLDPTR)
         COMMENT TYPE 1: A51 / ASM51 Assembler
  C:\KEIL\C51\LIB\C51L.LIB (?C?CLDOPTR)
         COMMENT TYPE 1: A51 / ASM51 Assembler
  C:\KEIL\C51\LIB\C51L.LIB (?C?CSTPTR)
         COMMENT TYPE 1: A51 / ASM51 Assembler
  C:\KEIL\C51\LIB\C51L.LIB (?C?CSTOPTR)
         COMMENT TYPE 1: A51 / ASM51 Assembler
  C:\KEIL\C51\LIB\C51L.LIB (?C?IMUL)
         COMMENT TYPE 1: A51 / ASM51 Assembler
  C:\KEIL\C51\LIB\C51L.LIB (?C?UIDIV)
         COMMENT TYPE 1: A51 / ASM51 Assembler
  C:\KEIL\C51\LIB\C51L.LIB (?C?IILDX)
         COMMENT TYPE 1: A51 / ASM51 Assembler
  C:\KEIL\C51\LIB\C51L.LIB (?C?ILDPTR)
         COMMENT TYPE 1: A51 / ASM51 Assembler
  C:\KEIL\C51\LIB\C51L.LIB (?C?ILDOPTR)
         COMMENT TYPE 1: A51 / ASM51 Assembler
  C:\KEIL\C51\LIB\C51L.LIB (?C?ISTOPTR)
         COMMENT TYPE 1: A51 / ASM51 Assembler
  C:\KEIL\C51\LIB\C51L.LIB (?C?ULDIV)
         COMMENT TYPE 1: A51 / ASM51 Assembler
  C:\KEIL\C51\LIB\C51L.LIB (?C?ULSHR)
         COMMENT TYPE 1: A51 / ASM51 Assembler
  C:\KEIL\C51\LIB\C51L.LIB (?C?LSTXDATA)
         COMMENT TYPE 1: A51 / ASM51 Assembler
  C:\KEIL\C51\LIB\C51L.LIB (?C?CCASE)
         COMMENT TYPE 1: A51 / ASM51 Assembler
  C:\KEIL\C51\LIB\C51L.LIB (?C?ICALL)
         COMMENT TYPE 1: A51 / ASM51 Assembler
  C:\KEIL\C51\LIB\C51L.LIB (?C?MEMSET)
         COMMENT TYPE 1: A51 / ASM51 Assembler


ACTIVE MEMORY CLASSES OF MODULE:  APP (?C_STARTUP)

BASE        START       END         USED      MEMORY CLASS
==========================================================
X:000000H   X:00E000H   X:00FF00H   0008F5H   XDATA
I:000000H   I:000000H   I:0000FFH   000001H   IDATA
C:000000H   C:000000H   C:00FFFFH   0023D6H   CODE
I:000000H   I:000000H   I:00007FH   000008H   DATA


MEMORY MAP OF MODULE:  APP (?C_STARTUP)


START     STOP      LENGTH    ALIGN  RELOC    MEMORY CLASS   SEGMENT NAME
LX51 LINKER/LOCATER V4.17                                                             09/19/2014  22:51:52  PAGE 2


=========================================================================

* * * * * * * * * * *   D A T A   M E M O R Y   * * * * * * * * * * * * *
000000H   000007H   000008H   ---    AT..     DATA           "REG BANK 0"
000008H   000008H   000001H   BYTE   UNIT     IDATA          ?STACK

* * * * * * * * * * *   C O D E   M E M O R Y   * * * * * * * * * * * * *
000000H   000002H   000003H   ---    OFFS..   CODE           ?CO??C_STARTUP?0
000003H   000005H   000003H   ---    OFFS..   CODE           ?CO?APP?2
000006H   00000AH   000005H   BYTE   UNIT     CODE           ?PR?_HALCC2430SIMPLEUARTP__UART0__PUT?APP
00000BH   00000DH   000003H   ---    OFFS..   CODE           ?CO?APP?4
00000EH   000011H   000004H   BYTE   UNIT     CODE           ?PR?HPLMCS51GENERALIOC__P13__MAKEOUTPUT?APP
000012H   000012H   000001H   BYTE   UNIT     CODE           ?PR?NOPINC__0__GENERALIO__SET?APP
000013H   000015H   000003H   ---    OFFS..   CODE           ?CO?APP?0
000016H   000039H   000024H   BYTE   UNIT     CODE           ?PR?_HALCC2430RADIOP__WAIT?APP
00003AH   00003AH   000001H   BYTE   UNIT     CODE           ?PR?NOPINC__0__GENERALIO__MAKEOUTPUT?APP
00003BH   00003DH   000003H   ---    OFFS..   CODE           ?CO?APP?1
00003EH   000082H   000045H   BYTE   UNIT     CODE           ?PR?_STDOUTM__STDOUT__PRINTHEX?APP
000083H   000085H   000003H   ---    OFFS..   CODE           ?CO?APP?3
000086H   000447H   0003C2H   BYTE   UNIT     CODE           ?C?LIB_CODE
000448H   0006AAH   000263H   BYTE   UNIT     CODE           ?PR?TESTAPPP__CONSOLETASK__RUNTASK?APP
0006ABH   0008BBH   000211H   BYTE   UNIT     CODE           ?PR?_STDOUTM__STDOUT__PRINT?APP
0008BCH   000AB1H   0001F6H   BYTE   UNIT     CODE           ?PR?_STDOUTM__STDOUT__PRINTBASE10UINT16?APP
000AB2H   000C7FH   0001CEH   BYTE   UNIT     CODE           ?PR?_SIMPLEMACM__HALCC2420__RECEIVEDPACKET?APP
000C80H   000E0CH   00018DH   BYTE   UNIT     CODE           ?CO?APP
000E0DH   000F4EH   000142H   BYTE   UNIT     CODE           ?PR?HALCC2430RADIOP__RECEIVEDPACKETTASK__RUNTASK?APP
000F4FH   00106BH   00011DH   BYTE   UNIT     CODE           ?PR?_STDOUTM__STDOUT__PRINTBASE10UINT8?APP
00106CH   00115AH   0000EFH   BYTE   UNIT     CODE           ?PR?_TESTAPPP__SIMPLEMAC__RECEIVEDPACKET?APP
00115BH   001224H   0000CAH   BYTE   UNIT     CODE           ?PR?_SIMPLEMACM__SIMPLEMAC__SENDPACKET?APP
001225H   0012E6H   0000C2H   BYTE   UNIT     CODE           ?PR?HALCC2430RADIOP__TRANSMITTASK__RUNTASK?APP
0012E7H   001397H   0000B1H   BYTE   UNIT     CODE           ?C_INITSEG
001398H   00143FH   0000A8H   BYTE   UNIT     CODE           ?PR?STDOUTM__UART__PUTDONE?APP
001440H   0014E4H   0000A5H   BYTE   UNIT     CODE           ?PR?_HALFLASHP__HALFLASH__WRITE?APP
0014E5H   001583H   00009FH   BYTE   UNIT     CODE           ?PR?__VECTOR_16?APP
001584H   001614H   000091H   BYTE   UNIT     CODE           ?PR?TESTAPPP__INIT__INIT?APP
001615H   0016A0H   00008CH   BYTE   UNIT     CODE           ?C_C51STARTUP
0016A1H   00171AH   00007AH   BYTE   UNIT     CODE           ?PR?HALCC2430RADIOP__INITTASK__RUNTASK?APP
00171BH   001788H   00006EH   BYTE   UNIT     CODE           ?PR?_ADCP__ADCCONTROL__ENABLE?APP
001789H   0017F5H   00006DH   BYTE   UNIT     CODE           ?PR?_STDOUTM__STDOUT__DUMPHEX?APP
0017F6H   001851H   00005CH   BYTE   UNIT     CODE           ?PR?_SCHEDULERBASICP__TASKBASIC__RUNTASK?APP
001852H   0018ACH   00005BH   BYTE   UNIT     CODE           ?PR?_STDOUTM__STDOUT__PRINTBASE10INT16?APP
0018ADH   001902H   000056H   BYTE   UNIT     CODE           ?PR?__VECTOR_7?APP
001903H   001952H   000050H   BYTE   UNIT     CODE           ?PR?__VECTOR_1?APP
001953H   0019A0H   00004EH   BYTE   UNIT     CODE           ?PR?_HALCC2430RADIOP__CC2420SETIEEEADDR?APP
0019A1H   0019EDH   00004DH   BYTE   UNIT     CODE           ?PR?__VECTOR_0?APP
0019EEH   001A36H   000049H   BYTE   UNIT     CODE           ?PR?TESTAPPP__BOOT__BOOTED?APP
001A37H   001A7AH   000044H   BYTE   UNIT     CODE           ?PR?ADCP__SIGNALREADDONE__RUNTASK?APP
001A7BH   001ABEH   000044H   BYTE   UNIT     CODE           ?PR?_ADCP__READ__READ?APP
001ABFH   001AFDH   00003FH   BYTE   UNIT     CODE           ?PR?__VECTOR_2?APP
001AFEH   001B3BH   00003EH   BYTE   UNIT     CODE           ?PR?_TESTAPPP__READ__READDONE?APP
001B3CH   001B78H   00003DH   BYTE   UNIT     CODE           ?PR?REALMAINP__SOFTWAREINIT__INIT?APP
001B79H   001BB1H   000039H   BYTE   UNIT     CODE           ?PR?STDOUTM__INIT__INIT?APP
001BB2H   001BEAH   000039H   BYTE   UNIT     CODE           ?PR?SCHEDULERBASICP__POPTASK?APP
001BEBH   001C1FH   000035H   BYTE   UNIT     CODE           ?PR?_HALFLASHP__HALFLASH__READ?APP
001C20H   001C53H   000034H   BYTE   UNIT     CODE           ?PR?_HALFLASHP__HALFLASH__ERASE?APP
001C54H   001C86H   000033H   BYTE   UNIT     CODE           ?PR?HALCC2430RADIOP__FLUSHBUFFERTASK__RUNTASK?APP
001C87H   001CB9H   000033H   BYTE   UNIT     CODE           ?PR?MAIN?APP
001CBAH   001CEBH   000032H   BYTE   UNIT     CODE           ?PR?_ADCP__READ__READDONE?APP
001CECH   001D1CH   000031H   BYTE   UNIT     CODE           ?PR?_TESTAPPP__SIMPLEMAC__SENDPACKETDONE?APP
001D1DH   001D4CH   000030H   BYTE   UNIT     CODE           ?PR?_TESTAPPP__HALFLASH__WRITE?APP
001D4DH   001D7CH   000030H   BYTE   UNIT     CODE           ?PR?_TESTAPPP__HALFLASH__READ?APP
001D7DH   001DA7H   00002BH   BYTE   UNIT     CODE           ?PR?_HALCC2430RADIOP__CC2430PALEVELSET?APP
001DA8H   001DD1H   00002AH   BYTE   UNIT     CODE           ?PR?_SCHEDULERBASICP__PUSHTASK?APP
001DD2H   001DFBH   00002AH   BYTE   UNIT     CODE           ?PR?SCHEDULERBASICP__SCHEDULER__TASKLOOP?APP
001DFCH   001E24H   000029H   BYTE   UNIT     CODE           ?PR?_SCHEDULERBASICP__TASKBASIC__POSTTASK?APP
LX51 LINKER/LOCATER V4.17                                                             09/19/2014  22:51:52  PAGE 3


001E25H   001E4CH   000028H   BYTE   UNIT     CODE           ?PR?HALCC2430SIMPLEUARTP__INIT__INIT?APP
001E4DH   001E6FH   000023H   BYTE   UNIT     CODE           ?PR?_STDOUTM__STDOUT__PRINTHEXWORD?APP
001E70H   001E91H   000022H   BYTE   UNIT     CODE           ?PR?SIMPLEMACM__SIGNALSENDPACKETDONE__RUNTASK?APP
001E92H   001EB1H   000020H   BYTE   UNIT     CODE           ?PR?HALCC2430RADIOP__SETCHANNELTASK__RUNTASK?APP
001EB2H   001ED1H   000020H   BYTE   UNIT     CODE           ?PR?_TESTAPPP__STDOUT__DUMPHEX?APP
001ED2H   001EF1H   000020H   BYTE   UNIT     CODE           ?PR?_HALCC2430RADIOP__CC2430CHANNELSET?APP
001EF2H   001F10H   00001FH   BYTE   UNIT     CODE           ?PR?HALFLASHP__INIT__INIT?APP
001F11H   001F2FH   00001FH   BYTE   UNIT     CODE           ?PR?HALCC2430RADIOP__INTERRUPTRFERR__FIRED?APP
001F30H   001F4CH   00001DH   BYTE   UNIT     CODE           ?PR?HALCC2430RADIOP__CC2430CONTROLSET?APP
001F4DH   001F68H   00001CH   BYTE   UNIT     CODE           ?PR?_SCHEDULERBASICP__ISWAITING?APP
001F69H   001F82H   00001AH   BYTE   UNIT     CODE           ?PR?SCHEDULERBASICP__SCHEDULER__INIT?APP
001F83H   001F9CH   00001AH   BYTE   UNIT     CODE           ?PR?HALCC2430RADIOP__CC2430TXWAIT?APP
001F9DH   001FB6H   00001AH   BYTE   UNIT     CODE           ?PR?_HALCC2430RADIOP__HALCC2420__SETCHANNEL?APP
001FB7H   001FCFH   000019H   BYTE   UNIT     CODE           ?PR?HPLCC2430INTERRUPTSC__INTERRUPTFIFOP__ENABLERISINGEDGE
                                                             -?APP
001FD0H   001FE8H   000019H   BYTE   UNIT     CODE           ?PR?HPLCC2430INTERRUPTSC__INTERRUPTTXDONE__ENABLERISINGEDG
                                                             -E?APP
001FE9H   002001H   000019H   BYTE   UNIT     CODE           ?PR?HALCC2430RADIOP__INTERRUPTFIFOP__FIRED?APP
002002H   002017H   000016H   BYTE   UNIT     CODE           ?PR?PLATFORMP__INIT__INIT?APP
002018H   00202CH   000015H   BYTE   UNIT     CODE           ?PR?LEDSP__INIT__INIT?APP
00202DH   002041H   000015H   BYTE   UNIT     CODE           ?PR?HALCC2430RADIOP__INTERRUPTTXDONE__FIRED?APP
002042H   002055H   000014H   BYTE   UNIT     CODE           ?PR?_SIMPLEMACM__HALCC2420__SENDPACKETDONE?APP
002056H   002069H   000014H   BYTE   UNIT     CODE           ?PR?TESTAPPP__SENDPACKETTASK__RUNTASK?APP
00206AH   00207DH   000014H   BYTE   UNIT     CODE           ?PR?SIMPLEMACM__INIT__INIT?APP
00207EH   002091H   000014H   BYTE   UNIT     CODE           ?PR?HALCC2430RADIOP__INIT__INIT?APP
002092H   0020A5H   000014H   BYTE   UNIT     CODE           ?PR?_TESTAPPP__ADCCONTROL__ENABLE?APP
0020A6H   0020B9H   000014H   BYTE   UNIT     CODE           ?PR?SCHEDULERBASICP__SCHEDULER__RUNNEXTTASK?APP
0020BAH   0020CCH   000013H   BYTE   UNIT     CODE           ?PR?___NESC_ATOMIC_END?APP
0020CDH   0020DFH   000013H   BYTE   UNIT     CODE           ?PR?_STDOUTM__UART__PUT?APP
0020E0H   0020F2H   000013H   BYTE   UNIT     CODE           ?PR?HPLCC2430INTERRUPTSC__INTERRUPTFIFOP__DISABLE?APP
0020F3H   002105H   000013H   BYTE   UNIT     CODE           ?PR?HALCC2430RADIOP__CC2430RXENABLE?APP
002106H   002117H   000012H   BYTE   UNIT     CODE           ?PR?HPLCC2430INTERRUPTSC__INTERRUPTRFERR__ENABLERISINGEDGE
                                                             -?APP
002118H   002128H   000011H   BYTE   UNIT     CODE           ?PR?HALCC2430RADIOP__CC2430RESET?APP
002129H   002139H   000011H   BYTE   UNIT     CODE           ?PR?_HALCC2430RADIOP__HALCC2420__SENDPACKET?APP
00213AH   00214AH   000011H   BYTE   UNIT     CODE           ?PR?ADCP__INIT__INIT?APP
00214BH   00215AH   000010H   BYTE   UNIT     CODE           ?PR?__NESC_ATOMIC_START?APP
00215BH   00216AH   000010H   BYTE   UNIT     CODE           ?PR?HALCC2430RADIOP__SENDPACKETDONETASK__RUNTASK?APP
00216BH   00217AH   000010H   BYTE   UNIT     CODE           ?PR?_ECOMBINE?APP
00217BH   00218AH   000010H   BYTE   UNIT     CODE           ?PR?REVERSEGPIOP__0__OUT__TOGGLE?APP
00218BH   002199H   00000FH   BYTE   UNIT     CODE           ?PR?_ADCP__READ__DEFAULT__READDONE?APP
00219AH   0021A8H   00000FH   BYTE   UNIT     CODE           ?PR?SIMPLEMACM__INITTASK__RUNTASK?APP
0021A9H   0021B6H   00000EH   BYTE   UNIT     CODE           ?PR?HALCC2430RADIOP__CC2430RFENABLE?APP
0021B7H   0021C2H   00000CH   BYTE   UNIT     CODE           ?PR?HALCC2430RADIOP__CC2430RXDISABLE?APP
0021C3H   0021CEH   00000CH   BYTE   UNIT     CODE           ?PR?HALCC2430RADIOP__CC2430EXTERNALOSCILLATOR?APP
0021CFH   0021DAH   00000CH   BYTE   UNIT     CODE           ?PR?HALCC2430RADIOP__HALCC2420__RXDISABLE?APP
0021DBH   0021E5H   00000BH   BYTE   UNIT     CODE           ?PR?_TESTAPPP__STDOUT__PRINTHEXWORD?APP
0021E6H   0021F0H   00000BH   BYTE   UNIT     CODE           ?PR?_TESTAPPP__STDOUT__GET?APP
0021F1H   0021FAH   00000AH   BYTE   UNIT     CODE           ?PR?_TESTAPPP__STDOUT__PRINT?APP
0021FBH   002203H   000009H   BYTE   UNIT     CODE           ?PR?_TESTAPPP__STDOUT__PRINTHEX?APP
002204H   00220CH   000009H   BYTE   UNIT     CODE           ?PR?_HALCC2430RADIOP__CC2430SETPANID?APP
00220DH   002215H   000009H   BYTE   UNIT     CODE           ?PR?_HALCC2430RADIOP__CC2430SETSHORTADDR?APP
002216H   00221EH   000009H   BYTE   UNIT     CODE           ?PR?HALCC2430RADIOP__HALCC2420CONTROL__START?APP
00221FH   002227H   000009H   BYTE   UNIT     CODE           ?PR?HALCC2430RADIOP__HALCC2420CONTROL__STOP?APP
002228H   002230H   000009H   BYTE   UNIT     CODE           ?PR?MCUSLEEPC__MCUSLEEP__SLEEP?APP
002231H   002239H   000009H   BYTE   UNIT     CODE           ?PR?_HPLCC2430INTERRUPTSC__CAPTURESFD__DEFAULT__CAPTURED?A
                                                             -PP
00223AH   002241H   000008H   BYTE   UNIT     CODE           ?PR?HALCC2430RADIOP__CC2430RFDISABLE?APP
002242H   002249H   000008H   BYTE   UNIT     CODE           ?PR?_STDOUTM__STDOUT__GET?APP
00224AH   002250H   000007H   BYTE   UNIT     CODE           ?PR?HALCC2430RADIOP__HALCC2420__GETADDRESS?APP
002251H   002256H   000006H   BYTE   UNIT     CODE           ?PR?TESTAPPP__READ__READ?APP
002257H   00225CH   000006H   BYTE   UNIT     CODE           ?PR?SIMPLEMACM__SIGNALSENDPACKETDONE__POSTTASK?APP
00225DH   002262H   000006H   BYTE   UNIT     CODE           ?PR?HALCC2430RADIOP__FLUSHBUFFERTASK__POSTTASK?APP
002263H   002268H   000006H   BYTE   UNIT     CODE           ?PR?HALCC2430RADIOP__RECEIVEDPACKETTASK__POSTTASK?APP
002269H   00226EH   000006H   BYTE   UNIT     CODE           ?PR?HALCC2430RADIOP__HALCC2420__RXENABLE?APP
LX51 LINKER/LOCATER V4.17                                                             09/19/2014  22:51:52  PAGE 4


00226FH   002274H   000006H   BYTE   UNIT     CODE           ?PR?HALCC2430RADIOP__TRANSMITTASK__POSTTASK?APP
002275H   00227AH   000006H   BYTE   UNIT     CODE           ?PR?HALCC2430RADIOP__SETCHANNELTASK__POSTTASK?APP
00227BH   002280H   000006H   BYTE   UNIT     CODE           ?PR?SIMPLEMACM__INITTASK__POSTTASK?APP
002281H   002286H   000006H   BYTE   UNIT     CODE           ?PR?HALCC2430RADIOP__INITTASK__POSTTASK?APP
002287H   00228CH   000006H   BYTE   UNIT     CODE           ?PR?TESTAPPP__CONSOLETASK__POSTTASK?APP
00228DH   002292H   000006H   BYTE   UNIT     CODE           ?PR?_HALCC2430RADIOP__STDOUT__GET?APP
002293H   002298H   000006H   BYTE   UNIT     CODE           ?PR?HALCC2430RADIOP__SENDPACKETDONETASK__POSTTASK?APP
002299H   00229EH   000006H   BYTE   UNIT     CODE           ?PR?ADCP__SIGNALREADDONE__POSTTASK?APP
00229FH   0022A4H   000006H   BYTE   UNIT     CODE           ?PR?_SCHEDULERBASICP__TASKBASIC__DEFAULT__RUNTASK?APP
0022A5H   0022A8H   000004H   BYTE   UNIT     CODE           ?PR?HPLMCS51GENERALIOC__P10__MAKEOUTPUT?APP
0022A9H   0022ACH   000004H   BYTE   UNIT     CODE           ?PR?PLATFORMP__LEDSINIT__INIT?APP
0022ADH   0022B0H   000004H   BYTE   UNIT     CODE           ?PR?REALMAINP__PLATFORMINIT__INIT?APP
0022B1H   0022B4H   000004H   BYTE   UNIT     CODE           ?PR?REALMAINP__SCHEDULER__RUNNEXTTASK?APP
0022B5H   0022B8H   000004H   BYTE   UNIT     CODE           ?PR?_TESTAPPP__STDOUT__PRINTBASE10INT16?APP
0022B9H   0022BCH   000004H   BYTE   UNIT     CODE           ?PR?_HALCC2430RADIOP__STDOUT__PRINT?APP
0022BDH   0022C0H   000004H   BYTE   UNIT     CODE           ?PR?HALCC2430RADIOP__INTERRUPTFIFOP__DISABLE?APP
0022C1H   0022C4H   000004H   BYTE   UNIT     CODE           ?PR?HALCC2430RADIOP__INTERRUPTFIFOP__ENABLERISINGEDGE?APP
0022C5H   0022C8H   000004H   BYTE   UNIT     CODE           ?PR?_SIMPLEMACM__SIMPLEMAC__RECEIVEDPACKET?APP
0022C9H   0022CCH   000004H   BYTE   UNIT     CODE           ?PR?_HALCC2430RADIOP__HALCC2420__RECEIVEDPACKET?APP
0022CDH   0022D0H   000004H   BYTE   UNIT     CODE           ?PR?HALCC2430RADIOP__INTERRUPTRFERR__ENABLERISINGEDGE?APP
0022D1H   0022D4H   000004H   BYTE   UNIT     CODE           ?PR?HALCC2430RADIOP__INTERRUPTTXDONE__ENABLERISINGEDGE?APP
0022D5H   0022D8H   000004H   BYTE   UNIT     CODE           ?PR?SIMPLEMACM__HALCC2420__GETADDRESS?APP
0022D9H   0022DCH   000004H   BYTE   UNIT     CODE           ?PR?_TESTAPPP__STDOUT__PRINTBASE10UINT8?APP
0022DDH   0022E0H   000004H   BYTE   UNIT     CODE           ?PR?_TESTAPPP__HALFLASH__ERASE?APP
0022E1H   0022E4H   000004H   BYTE   UNIT     CODE           ?PR?_SIMPLEMACM__HALCC2420__SETCHANNEL?APP
0022E5H   0022E8H   000004H   BYTE   UNIT     CODE           ?PR?_SIMPLEMACM__SIMPLEMAC__SETCHANNEL?APP
0022E9H   0022ECH   000004H   BYTE   UNIT     CODE           ?PR?_TESTAPPP__SIMPLEMAC__SETCHANNEL?APP
0022EDH   0022F0H   000004H   BYTE   UNIT     CODE           ?PR?SIMPLEMACM__HALCC2420__RXENABLE?APP
0022F1H   0022F4H   000004H   BYTE   UNIT     CODE           ?PR?SIMPLEMACM__SIMPLEMAC__RXENABLE?APP
0022F5H   0022F8H   000004H   BYTE   UNIT     CODE           ?PR?TESTAPPP__SIMPLEMAC__RXENABLE?APP
0022F9H   0022FCH   000004H   BYTE   UNIT     CODE           ?PR?SIMPLEMACM__HALCC2420__RXDISABLE?APP
0022FDH   002300H   000004H   BYTE   UNIT     CODE           ?PR?SIMPLEMACM__SIMPLEMAC__RXDISABLE?APP
002301H   002304H   000004H   BYTE   UNIT     CODE           ?PR?TESTAPPP__SIMPLEMAC__RXDISABLE?APP
002305H   002308H   000004H   BYTE   UNIT     CODE           ?PR?SIMPLEMACM__HALCC2420CONTROL__START?APP
002309H   00230CH   000004H   BYTE   UNIT     CODE           ?PR?SIMPLEMACM__SIMPLEMACCONTROL__START?APP
00230DH   002310H   000004H   BYTE   UNIT     CODE           ?PR?TESTAPPP__SIMPLEMACCONTROL__START?APP
002311H   002314H   000004H   BYTE   UNIT     CODE           ?PR?SIMPLEMACM__HALCC2420CONTROL__STOP?APP
002315H   002318H   000004H   BYTE   UNIT     CODE           ?PR?SIMPLEMACM__SIMPLEMACCONTROL__STOP?APP
002319H   00231CH   000004H   BYTE   UNIT     CODE           ?PR?TESTAPPP__SIMPLEMACCONTROL__STOP?APP
00231DH   002320H   000004H   BYTE   UNIT     CODE           ?PR?_TESTAPPP__SIMPLEMAC__SENDPACKET?APP
002321H   002324H   000004H   BYTE   UNIT     CODE           ?PR?_SIMPLEMACM__HALCC2420__SENDPACKET?APP
002325H   002328H   000004H   BYTE   UNIT     CODE           ?PR?_STDOUTM__UART__GET?APP
002329H   00232BH   000003H   BYTE   UNIT     CODE           ?PR?REALMAINP__SCHEDULER__INIT?APP
00232CH   00232EH   000003H   BYTE   UNIT     CODE           ?PR?HPLMCS51GENERALIOC__P13__CLR?APP
00232FH   002331H   000003H   BYTE   UNIT     CODE           ?PR?REVERSEGPIOP__1__IN__CLR?APP
002332H   002334H   000003H   BYTE   UNIT     CODE           ?PR?REVERSEGPIOP__1__OUT__SET?APP
002335H   002337H   000003H   BYTE   UNIT     CODE           ?PR?LEDSP__LED2__SET?APP
002338H   00233AH   000003H   BYTE   UNIT     CODE           ?PR?LEDSP__LED1__SET?APP
00233BH   00233DH   000003H   BYTE   UNIT     CODE           ?PR?HPLMCS51GENERALIOC__P10__CLR?APP
00233EH   002340H   000003H   BYTE   UNIT     CODE           ?PR?REVERSEGPIOP__0__IN__CLR?APP
002341H   002343H   000003H   BYTE   UNIT     CODE           ?PR?REVERSEGPIOP__0__OUT__SET?APP
002344H   002346H   000003H   BYTE   UNIT     CODE           ?PR?LEDSP__LED0__SET?APP
002347H   002349H   000003H   BYTE   UNIT     CODE           ?PR?REVERSEGPIOP__1__IN__MAKEOUTPUT?APP
00234AH   00234CH   000003H   BYTE   UNIT     CODE           ?PR?REVERSEGPIOP__1__OUT__MAKEOUTPUT?APP
00234DH   00234FH   000003H   BYTE   UNIT     CODE           ?PR?LEDSP__LED2__MAKEOUTPUT?APP
002350H   002352H   000003H   BYTE   UNIT     CODE           ?PR?LEDSP__LED1__MAKEOUTPUT?APP
002353H   002355H   000003H   BYTE   UNIT     CODE           ?PR?REVERSEGPIOP__0__IN__MAKEOUTPUT?APP
002356H   002358H   000003H   BYTE   UNIT     CODE           ?PR?REVERSEGPIOP__0__OUT__MAKEOUTPUT?APP
002359H   00235BH   000003H   BYTE   UNIT     CODE           ?PR?LEDSP__LED0__MAKEOUTPUT?APP
00235CH   00235EH   000003H   BYTE   UNIT     CODE           ?PR?_HALCC2430RADIOP__HALCC2420__SENDPACKETDONE?APP
00235FH   002361H   000003H   BYTE   UNIT     CODE           ?PR?_SIMPLEMACM__SIMPLEMAC__SENDPACKETDONE?APP
002362H   002364H   000003H   BYTE   UNIT     CODE           ?PR?HPLMCS51GENERALIOC__P13__SET?APP
002365H   002367H   000003H   BYTE   UNIT     CODE           ?PR?REVERSEGPIOP__1__IN__SET?APP
002368H   00236AH   000003H   BYTE   UNIT     CODE           ?PR?REVERSEGPIOP__1__OUT__CLR?APP
00236BH   00236DH   000003H   BYTE   UNIT     CODE           ?PR?LEDSP__LED2__CLR?APP
LX51 LINKER/LOCATER V4.17                                                             09/19/2014  22:51:52  PAGE 5


00236EH   002370H   000003H   BYTE   UNIT     CODE           ?PR?LEDSP__LEDS__LED2ON?APP
002371H   002373H   000003H   BYTE   UNIT     CODE           ?PR?TESTAPPP__LEDS__LED2ON?APP
002374H   002376H   000003H   BYTE   UNIT     CODE           ?PR?LEDSP__LED1__CLR?APP
002377H   002379H   000003H   BYTE   UNIT     CODE           ?PR?LEDSP__LEDS__LED1ON?APP
00237AH   00237CH   000003H   BYTE   UNIT     CODE           ?PR?TESTAPPP__LEDS__LED1ON?APP
00237DH   00237FH   000003H   BYTE   UNIT     CODE           ?PR?HPLMCS51GENERALIOC__P10__SET?APP
002380H   002382H   000003H   BYTE   UNIT     CODE           ?PR?REVERSEGPIOP__0__IN__SET?APP
002383H   002385H   000003H   BYTE   UNIT     CODE           ?PR?REVERSEGPIOP__0__OUT__CLR?APP
002386H   002388H   000003H   BYTE   UNIT     CODE           ?PR?LEDSP__LED0__CLR?APP
002389H   00238BH   000003H   BYTE   UNIT     CODE           ?PR?LEDSP__LEDS__LED0ON?APP
00238CH   00238EH   000003H   BYTE   UNIT     CODE           ?PR?TESTAPPP__LEDS__LED0ON?APP
00238FH   002391H   000003H   BYTE   UNIT     CODE           ?PR?LEDSP__LEDS__LED2OFF?APP
002392H   002394H   000003H   BYTE   UNIT     CODE           ?PR?TESTAPPP__LEDS__LED2OFF?APP
002395H   002397H   000003H   BYTE   UNIT     CODE           ?PR?LEDSP__LEDS__LED1OFF?APP
002398H   00239AH   000003H   BYTE   UNIT     CODE           ?PR?TESTAPPP__LEDS__LED1OFF?APP
00239BH   00239DH   000003H   BYTE   UNIT     CODE           ?PR?LEDSP__LEDS__LED0OFF?APP
00239EH   0023A0H   000003H   BYTE   UNIT     CODE           ?PR?TESTAPPP__LEDS__LED0OFF?APP
0023A1H   0023A3H   000003H   BYTE   UNIT     CODE           ?PR?REALMAINP__BOOT__BOOTED?APP
0023A4H   0023A6H   000003H   BYTE   UNIT     CODE           ?PR?__NESC_DISABLE_INTERRUPT?APP
0023A7H   0023A9H   000003H   BYTE   UNIT     CODE           ?PR?__NESC_ENABLE_INTERRUPT?APP
0023AAH   0023ACH   000003H   BYTE   UNIT     CODE           ?PR?SCHEDULERBASICP__MCUSLEEP__SLEEP?APP
0023ADH   0023AFH   000003H   BYTE   UNIT     CODE           ?PR?REALMAINP__SCHEDULER__TASKLOOP?APP
0023B0H   0023B2H   000003H   BYTE   UNIT     CODE           ?PR?HPLMCS51GENERALIOC__P10__TOGGLE?APP
0023B3H   0023B5H   000003H   BYTE   UNIT     CODE           ?PR?REVERSEGPIOP__0__IN__TOGGLE?APP
0023B6H   0023B8H   000003H   BYTE   UNIT     CODE           ?PR?LEDSP__LED0__TOGGLE?APP
0023B9H   0023BBH   000003H   BYTE   UNIT     CODE           ?PR?LEDSP__LEDS__LED0TOGGLE?APP
0023BCH   0023BEH   000003H   BYTE   UNIT     CODE           ?PR?TESTAPPP__LEDS__LED0TOGGLE?APP
0023BFH   0023C1H   000003H   BYTE   UNIT     CODE           ?PR?_HALCC2430SIMPLEUARTP__UART0__GET?APP
0023C2H   0023C4H   000003H   BYTE   UNIT     CODE           ?PR?HALCC2430SIMPLEUARTP__UART0__PUTDONE?APP
0023C5H   0023C7H   000003H   BYTE   UNIT     CODE           ?PR?HPLCC2430INTERRUPTSC__INTERRUPTRFERR__FIRED?APP
0023C8H   0023CAH   000003H   BYTE   UNIT     CODE           ?PR?HPLCC2430INTERRUPTSC__INTERRUPTCCA__FIRED?APP
0023CBH   0023CDH   000003H   BYTE   UNIT     CODE           ?PR?HPLCC2430INTERRUPTSC__INTERRUPTFIFOP__FIRED?APP
0023CEH   0023D0H   000003H   BYTE   UNIT     CODE           ?PR?HPLCC2430INTERRUPTSC__INTERRUPTTXDONE__FIRED?APP
0023D1H   0023D3H   000003H   BYTE   UNIT     CODE           ?PR?_HPLCC2430INTERRUPTSC__CAPTURESFD__CAPTURED?APP
0023D4H   0023D4H   000001H   BYTE   UNIT     CODE           ?PR?NOPINC__0__GENERALIO__CLR?APP
0023D5H   0023D5H   000001H   BYTE   UNIT     CODE           ?PR?HPLCC2430INTERRUPTSC__INTERRUPTCCA__DEFAULT__FIRED?APP

* * * * * * * * * * *  X D A T A   M E M O R Y  * * * * * * * * * * * * *
00E000H   00E8B4H   0008B5H   BYTE   UNIT     XDATA          ?XD?APP
00E8B5H   00E8F4H   000040H   BYTE   UNIT     XDATA          _XDATA_GROUP_



OVERLAY MAP OF MODULE:   APP (?C_STARTUP)


FUNCTION/MODULE                               XDATA_GROUP
--> CALLED FUNCTION/MODULE                    START  STOP
=========================================================
?C_C51STARTUP                                 ----- -----
  +--> ?PR?MAIN?APP
  +--> ?C_INITSEG

MAIN/APP                                      E8B5H E8B5H
  +--> ?PR?__NESC_ATOMIC_START?APP
  +--> ?PR?REALMAINP__SCHEDULER__INIT?APP
  +--> ?PR?REALMAINP__PLATFORMINIT__INIT?APP
  +--> ?PR?REALMAINP__SCHEDULER__RUNNEXTTASK...
  +--> ?PR?REALMAINP__SOFTWAREINIT__INIT?APP
  +--> ?PR?___NESC_ATOMIC_END?APP
  +--> ?PR?__NESC_ENABLE_INTERRUPT?APP
  +--> ?PR?REALMAINP__BOOT__BOOTED?APP
  +--> ?PR?REALMAINP__SCHEDULER__TASKLOOP?APP

__NESC_ATOMIC_START/APP                       ----- -----
LX51 LINKER/LOCATER V4.17                                                             09/19/2014  22:51:52  PAGE 6



REALMAINP__SCHEDULER__INIT/APP                ----- -----
  +--> ?PR?SCHEDULERBASICP__SCHEDULER__INIT?APP

SCHEDULERBASICP__SCHEDULER__INIT/APP          ----- -----

REALMAINP__PLATFORMINIT__INIT/APP             ----- -----
  +--> ?PR?PLATFORMP__INIT__INIT?APP

PLATFORMP__INIT__INIT/APP                     ----- -----
  +--> ?PR?PLATFORMP__LEDSINIT__INIT?APP

PLATFORMP__LEDSINIT__INIT/APP                 ----- -----
  +--> ?PR?LEDSP__INIT__INIT?APP

LEDSP__INIT__INIT/APP                         ----- -----
  +--> ?PR?LEDSP__LED0__MAKEOUTPUT?APP
  +--> ?PR?LEDSP__LED1__MAKEOUTPUT?APP
  +--> ?PR?LEDSP__LED2__MAKEOUTPUT?APP
  +--> ?PR?LEDSP__LED0__SET?APP
  +--> ?PR?LEDSP__LED1__SET?APP
  +--> ?PR?LEDSP__LED2__SET?APP

LEDSP__LED0__MAKEOUTPUT/APP                   ----- -----
  +--> ?PR?REVERSEGPIOP__0__OUT__MAKEOUTPUT?APP

REVERSEGPIOP__0__OUT__MAKEOUTPUT/APP          ----- -----
  +--> ?PR?REVERSEGPIOP__0__IN__MAKEOUTPUT?APP

REVERSEGPIOP__0__IN__MAKEOUTPUT/APP           ----- -----
  +--> ?PR?HPLMCS51GENERALIOC__P10__MAKEOUTP...

HPLMCS51GENERALIOC__P10__MAKEOUTPUT/APP       ----- -----

LEDSP__LED1__MAKEOUTPUT/APP                   ----- -----
  +--> ?PR?NOPINC__0__GENERALIO__MAKEOUTPUT?APP

NOPINC__0__GENERALIO__MAKEOUTPUT/APP          ----- -----

LEDSP__LED2__MAKEOUTPUT/APP                   ----- -----
  +--> ?PR?REVERSEGPIOP__1__OUT__MAKEOUTPUT?APP

REVERSEGPIOP__1__OUT__MAKEOUTPUT/APP          ----- -----
  +--> ?PR?REVERSEGPIOP__1__IN__MAKEOUTPUT?APP

REVERSEGPIOP__1__IN__MAKEOUTPUT/APP           ----- -----
  +--> ?PR?HPLMCS51GENERALIOC__P13__MAKEOUTP...

HPLMCS51GENERALIOC__P13__MAKEOUTPUT/APP       ----- -----

LEDSP__LED0__SET/APP                          ----- -----
  +--> ?PR?REVERSEGPIOP__0__OUT__SET?APP

REVERSEGPIOP__0__OUT__SET/APP                 ----- -----
  +--> ?PR?REVERSEGPIOP__0__IN__CLR?APP

REVERSEGPIOP__0__IN__CLR/APP                  ----- -----
  +--> ?PR?HPLMCS51GENERALIOC__P10__CLR?APP

HPLMCS51GENERALIOC__P10__CLR/APP              ----- -----

LEDSP__LED1__SET/APP                          ----- -----
  +--> ?PR?NOPINC__0__GENERALIO__SET?APP

NOPINC__0__GENERALIO__SET/APP                 ----- -----
LX51 LINKER/LOCATER V4.17                                                             09/19/2014  22:51:52  PAGE 7



LEDSP__LED2__SET/APP                          ----- -----
  +--> ?PR?REVERSEGPIOP__1__OUT__SET?APP

REVERSEGPIOP__1__OUT__SET/APP                 ----- -----
  +--> ?PR?REVERSEGPIOP__1__IN__CLR?APP

REVERSEGPIOP__1__IN__CLR/APP                  ----- -----
  +--> ?PR?HPLMCS51GENERALIOC__P13__CLR?APP

HPLMCS51GENERALIOC__P13__CLR/APP              ----- -----

REALMAINP__SCHEDULER__RUNNEXTTASK/APP         ----- -----
  +--> ?PR?SCHEDULERBASICP__SCHEDULER__RUNNE...

SCHEDULERBASICP__SCHEDULER__RUNNEXTTA...      E8B6H E8B6H
  +--> ?PR?SCHEDULERBASICP__POPTASK?APP
  +--> ?PR?_SCHEDULERBASICP__TASKBASIC__RUNT...

SCHEDULERBASICP__POPTASK/APP                  E8B8H E8B8H

_SCHEDULERBASICP__TASKBASIC__RUNTASK/APP      E8B8H E8B8H
  +--> ?PR?TESTAPPP__SENDPACKETTASK__RUNTASK...
  +--> ?PR?TESTAPPP__CONSOLETASK__RUNTASK?APP
  +--> ?PR?SIMPLEMACM__INITTASK__RUNTASK?APP
  +--> ?PR?SIMPLEMACM__SIGNALSENDPACKETDONE_...
  +--> ?PR?HALCC2430RADIOP__INITTASK__RUNTAS...
  +--> ?PR?HALCC2430RADIOP__TRANSMITTASK__RU...
  +--> ?PR?HALCC2430RADIOP__SETCHANNELTASK__...
  +--> ?PR?HALCC2430RADIOP__RECEIVEDPACKETTA...
  +--> ?PR?HALCC2430RADIOP__FLUSHBUFFERTASK_...
  +--> ?PR?HALCC2430RADIOP__SENDPACKETDONETA...
  +--> ?PR?ADCP__SIGNALREADDONE__RUNTASK?APP
  +--> ?PR?_SCHEDULERBASICP__TASKBASIC__DEFA...

TESTAPPP__SENDPACKETTASK__RUNTASK/APP         ----- -----
  +--> ?PR?TESTAPPP__SIMPLEMACCONTROL__START...
  +--> ?PR?_TESTAPPP__SIMPLEMAC__SENDPACKET?APP
  +--> ?PR?TESTAPPP__SIMPLEMACCONTROL__STOP?APP

TESTAPPP__SIMPLEMACCONTROL__START/APP         ----- -----
  +--> ?PR?SIMPLEMACM__SIMPLEMACCONTROL__STA...

SIMPLEMACM__SIMPLEMACCONTROL__START/APP       ----- -----
  +--> ?PR?SIMPLEMACM__HALCC2420CONTROL__STA...

SIMPLEMACM__HALCC2420CONTROL__START/APP       ----- -----
  +--> ?PR?HALCC2430RADIOP__HALCC2420CONTROL...

HALCC2430RADIOP__HALCC2420CONTROL__ST...      ----- -----
  +--> ?PR?HALCC2430RADIOP__CC2430RFENABLE?APP
  +--> ?PR?HALCC2430RADIOP__CC2430RXENABLE?APP

HALCC2430RADIOP__CC2430RFENABLE/APP           ----- -----

HALCC2430RADIOP__CC2430RXENABLE/APP           ----- -----
  +--> ?PR?HALCC2430RADIOP__INTERRUPTFIFOP__...

HALCC2430RADIOP__INTERRUPTFIFOP__ENAB...      ----- -----
  +--> ?PR?HPLCC2430INTERRUPTSC__INTERRUPTFI...

HPLCC2430INTERRUPTSC__INTERRUPTFIFOP_...      E8C2H E8C2H
  +--> ?PR?__NESC_ATOMIC_START?APP
  +--> ?PR?___NESC_ATOMIC_END?APP

LX51 LINKER/LOCATER V4.17                                                             09/19/2014  22:51:52  PAGE 8


___NESC_ATOMIC_END/APP                        ----- -----
  +--> ?PR?__NESC_ATOMIC_START?APP

_TESTAPPP__SIMPLEMAC__SENDPACKET/APP          ----- -----
  +--> ?PR?_SIMPLEMACM__SIMPLEMAC__SENDPACKE...

_SIMPLEMACM__SIMPLEMAC__SENDPACKET/APP        E8C2H E8C5H
  +--> ?PR?__NESC_ATOMIC_START?APP
  +--> ?PR?___NESC_ATOMIC_END?APP
  +--> ?PR?_SIMPLEMACM__HALCC2420__SENDPACKE...

_SIMPLEMACM__HALCC2420__SENDPACKET/APP        ----- -----
  +--> ?PR?_HALCC2430RADIOP__HALCC2420__SEND...

_HALCC2430RADIOP__HALCC2420__SENDPACK...      ----- -----
  +--> ?PR?HALCC2430RADIOP__TRANSMITTASK__PO...

HALCC2430RADIOP__TRANSMITTASK__POSTTA...      ----- -----
  +--> ?PR?_SCHEDULERBASICP__TASKBASIC__POST...

_SCHEDULERBASICP__TASKBASIC__POSTTASK...      E8F3H E8F4H
  +--> ?PR?__NESC_ATOMIC_START?APP
  +--> ?PR?_SCHEDULERBASICP__PUSHTASK?APP
  +--> ?PR?___NESC_ATOMIC_END?APP

_SCHEDULERBASICP__PUSHTASK/APP                ----- -----
  +--> ?PR?_SCHEDULERBASICP__ISWAITING?APP

_SCHEDULERBASICP__ISWAITING/APP               ----- -----

TESTAPPP__SIMPLEMACCONTROL__STOP/APP          ----- -----
  +--> ?PR?SIMPLEMACM__SIMPLEMACCONTROL__STO...

SIMPLEMACM__SIMPLEMACCONTROL__STOP/APP        ----- -----
  +--> ?PR?SIMPLEMACM__HALCC2420CONTROL__STO...

SIMPLEMACM__HALCC2420CONTROL__STOP/APP        ----- -----
  +--> ?PR?HALCC2430RADIOP__HALCC2420CONTROL...

HALCC2430RADIOP__HALCC2420CONTROL__ST...      ----- -----
  +--> ?PR?HALCC2430RADIOP__CC2430TXWAIT?APP
  +--> ?PR?HALCC2430RADIOP__CC2430RFDISABLE?APP

HALCC2430RADIOP__CC2430TXWAIT/APP             ----- -----
  +--> ?PR?_HALCC2430RADIOP__WAIT?APP

_HALCC2430RADIOP__WAIT/APP                    ----- -----

HALCC2430RADIOP__CC2430RFDISABLE/APP          ----- -----

TESTAPPP__CONSOLETASK__RUNTASK/APP            E8B9H E8C1H
  +--> ?PR?__NESC_ATOMIC_START?APP
  +--> ?PR?___NESC_ATOMIC_END?APP
  +--> ?CO?APP
  +--> ?PR?_TESTAPPP__STDOUT__PRINT?APP
  +--> ?PR?TESTAPPP__LEDS__LED0OFF?APP
  +--> ?PR?TESTAPPP__LEDS__LED1OFF?APP
  +--> ?PR?TESTAPPP__LEDS__LED2OFF?APP
  +--> ?PR?TESTAPPP__LEDS__LED0ON?APP
  +--> ?PR?TESTAPPP__LEDS__LED1ON?APP
  +--> ?PR?TESTAPPP__LEDS__LED2ON?APP
  +--> ?PR?_TESTAPPP__STDOUT__DUMPHEX?APP
  +--> ?PR?_TESTAPPP__SIMPLEMAC__SENDPACKET?APP
  +--> ?PR?TESTAPPP__SIMPLEMACCONTROL__STOP?APP
  +--> ?PR?TESTAPPP__SIMPLEMACCONTROL__START...
LX51 LINKER/LOCATER V4.17                                                             09/19/2014  22:51:52  PAGE 9


  +--> ?PR?TESTAPPP__SIMPLEMAC__RXDISABLE?APP
  +--> ?PR?TESTAPPP__SIMPLEMAC__RXENABLE?APP
  +--> ?PR?_TESTAPPP__STDOUT__PRINTBASE10UIN...
  +--> ?PR?_TESTAPPP__SIMPLEMAC__SETCHANNEL?APP
  +--> ?PR?_TESTAPPP__HALFLASH__READ?APP
  +--> ?PR?_TESTAPPP__STDOUT__PRINTHEX?APP
  +--> ?PR?_TESTAPPP__HALFLASH__WRITE?APP
  +--> ?PR?_TESTAPPP__HALFLASH__ERASE?APP
  +--> ?PR?TESTAPPP__READ__READ?APP

?CO?APP                                       ----- -----

_TESTAPPP__STDOUT__PRINT/APP                  ----- -----
  +--> ?CO?APP
  +--> ?PR?_STDOUTM__STDOUT__PRINT?APP

_STDOUTM__STDOUT__PRINT/APP                   E8ECH E8F2H
  +--> ?PR?__NESC_ATOMIC_START?APP
  +--> ?PR?_STDOUTM__UART__PUT?APP
  +--> ?PR?___NESC_ATOMIC_END?APP

_STDOUTM__UART__PUT/APP                       ----- -----
  +--> ?PR?_HALCC2430SIMPLEUARTP__UART0__PUT...

_HALCC2430SIMPLEUARTP__UART0__PUT/APP         ----- -----

TESTAPPP__LEDS__LED0OFF/APP                   ----- -----
  +--> ?PR?LEDSP__LEDS__LED0OFF?APP

LEDSP__LEDS__LED0OFF/APP                      ----- -----
  +--> ?PR?LEDSP__LED0__SET?APP

TESTAPPP__LEDS__LED1OFF/APP                   ----- -----
  +--> ?PR?LEDSP__LEDS__LED1OFF?APP

LEDSP__LEDS__LED1OFF/APP                      ----- -----
  +--> ?PR?LEDSP__LED1__SET?APP

TESTAPPP__LEDS__LED2OFF/APP                   ----- -----
  +--> ?PR?LEDSP__LEDS__LED2OFF?APP

LEDSP__LEDS__LED2OFF/APP                      ----- -----
  +--> ?PR?LEDSP__LED2__SET?APP

TESTAPPP__LEDS__LED0ON/APP                    ----- -----
  +--> ?PR?LEDSP__LEDS__LED0ON?APP

LEDSP__LEDS__LED0ON/APP                       ----- -----
  +--> ?PR?LEDSP__LED0__CLR?APP

LEDSP__LED0__CLR/APP                          ----- -----
  +--> ?PR?REVERSEGPIOP__0__OUT__CLR?APP

REVERSEGPIOP__0__OUT__CLR/APP                 ----- -----
  +--> ?PR?REVERSEGPIOP__0__IN__SET?APP

REVERSEGPIOP__0__IN__SET/APP                  ----- -----
  +--> ?PR?HPLMCS51GENERALIOC__P10__SET?APP

HPLMCS51GENERALIOC__P10__SET/APP              ----- -----

TESTAPPP__LEDS__LED1ON/APP                    ----- -----
  +--> ?PR?LEDSP__LEDS__LED1ON?APP

LEDSP__LEDS__LED1ON/APP                       ----- -----
LX51 LINKER/LOCATER V4.17                                                             09/19/2014  22:51:52  PAGE 10


  +--> ?PR?LEDSP__LED1__CLR?APP

LEDSP__LED1__CLR/APP                          ----- -----
  +--> ?PR?NOPINC__0__GENERALIO__CLR?APP

NOPINC__0__GENERALIO__CLR/APP                 ----- -----

TESTAPPP__LEDS__LED2ON/APP                    ----- -----
  +--> ?PR?LEDSP__LEDS__LED2ON?APP

LEDSP__LEDS__LED2ON/APP                       ----- -----
  +--> ?PR?LEDSP__LED2__CLR?APP

LEDSP__LED2__CLR/APP                          ----- -----
  +--> ?PR?REVERSEGPIOP__1__OUT__CLR?APP

REVERSEGPIOP__1__OUT__CLR/APP                 ----- -----
  +--> ?PR?REVERSEGPIOP__1__IN__SET?APP

REVERSEGPIOP__1__IN__SET/APP                  ----- -----
  +--> ?PR?HPLMCS51GENERALIOC__P13__SET?APP

HPLMCS51GENERALIOC__P13__SET/APP              ----- -----

_TESTAPPP__STDOUT__DUMPHEX/APP                E8C2H E8C8H
  +--> ?PR?_STDOUTM__STDOUT__DUMPHEX?APP

_STDOUTM__STDOUT__DUMPHEX/APP                 E8C9H E8D1H
  +--> ?PR?_STDOUTM__STDOUT__PRINT?APP
  +--> ?PR?_STDOUTM__STDOUT__PRINTHEX?APP

_STDOUTM__STDOUT__PRINTHEX/APP                E8D2H E8D4H
  +--> ?PR?_STDOUTM__STDOUT__PRINT?APP

TESTAPPP__SIMPLEMAC__RXDISABLE/APP            ----- -----
  +--> ?PR?SIMPLEMACM__SIMPLEMAC__RXDISABLE?APP

SIMPLEMACM__SIMPLEMAC__RXDISABLE/APP          ----- -----
  +--> ?PR?SIMPLEMACM__HALCC2420__RXDISABLE?APP

SIMPLEMACM__HALCC2420__RXDISABLE/APP          ----- -----
  +--> ?PR?HALCC2430RADIOP__HALCC2420__RXDIS...

HALCC2430RADIOP__HALCC2420__RXDISABLE...      ----- -----
  +--> ?PR?HALCC2430RADIOP__CC2430RXDISABLE?APP

HALCC2430RADIOP__CC2430RXDISABLE/APP          ----- -----
  +--> ?PR?HALCC2430RADIOP__INTERRUPTFIFOP__...

HALCC2430RADIOP__INTERRUPTFIFOP__DISA...      ----- -----
  +--> ?PR?HPLCC2430INTERRUPTSC__INTERRUPTFI...

HPLCC2430INTERRUPTSC__INTERRUPTFIFOP_...      E8C2H E8C2H
  +--> ?PR?__NESC_ATOMIC_START?APP
  +--> ?PR?___NESC_ATOMIC_END?APP

TESTAPPP__SIMPLEMAC__RXENABLE/APP             ----- -----
  +--> ?PR?SIMPLEMACM__SIMPLEMAC__RXENABLE?APP

SIMPLEMACM__SIMPLEMAC__RXENABLE/APP           ----- -----
  +--> ?PR?SIMPLEMACM__HALCC2420__RXENABLE?APP

SIMPLEMACM__HALCC2420__RXENABLE/APP           ----- -----
  +--> ?PR?HALCC2430RADIOP__HALCC2420__RXENA...

LX51 LINKER/LOCATER V4.17                                                             09/19/2014  22:51:52  PAGE 11


HALCC2430RADIOP__HALCC2420__RXENABLE/APP      ----- -----
  +--> ?PR?HALCC2430RADIOP__CC2430RXENABLE?APP

_TESTAPPP__STDOUT__PRINTBASE10UINT8/APP       ----- -----
  +--> ?PR?_STDOUTM__STDOUT__PRINTBASE10UINT...

_STDOUTM__STDOUT__PRINTBASE10UINT8/APP        E8C2H E8CCH
  +--> ?PR?_STDOUTM__STDOUT__PRINT?APP

_TESTAPPP__SIMPLEMAC__SETCHANNEL/APP          ----- -----
  +--> ?PR?_SIMPLEMACM__SIMPLEMAC__SETCHANNE...

_SIMPLEMACM__SIMPLEMAC__SETCHANNEL/APP        ----- -----
  +--> ?PR?_SIMPLEMACM__HALCC2420__SETCHANNE...

_SIMPLEMACM__HALCC2420__SETCHANNEL/APP        ----- -----
  +--> ?PR?_HALCC2430RADIOP__HALCC2420__SETC...

_HALCC2430RADIOP__HALCC2420__SETCHANN...      ----- -----
  +--> ?PR?HALCC2430RADIOP__SETCHANNELTASK__...

HALCC2430RADIOP__SETCHANNELTASK__POST...      ----- -----
  +--> ?PR?_SCHEDULERBASICP__TASKBASIC__POST...

_TESTAPPP__HALFLASH__READ/APP                 E8C2H E8C9H
  +--> ?PR?_HALFLASHP__HALFLASH__READ?APP

_HALFLASHP__HALFLASH__READ/APP                E8CAH E8D1H

_TESTAPPP__STDOUT__PRINTHEX/APP               ----- -----
  +--> ?PR?_STDOUTM__STDOUT__PRINTHEX?APP

_TESTAPPP__HALFLASH__WRITE/APP                E8C2H E8C9H
  +--> ?PR?_HALFLASHP__HALFLASH__WRITE?APP

_HALFLASHP__HALFLASH__WRITE/APP               E8CAH E8D4H

_TESTAPPP__HALFLASH__ERASE/APP                ----- -----
  +--> ?PR?_HALFLASHP__HALFLASH__ERASE?APP

_HALFLASHP__HALFLASH__ERASE/APP               E8C2H E8C2H

TESTAPPP__READ__READ/APP                      ----- -----
  +--> ?PR?_ADCP__READ__READ?APP

_ADCP__READ__READ/APP                         E8C2H E8C2H

SIMPLEMACM__INITTASK__RUNTASK/APP             ----- -----
  +--> ?PR?SIMPLEMACM__HALCC2420__GETADDRESS...

SIMPLEMACM__HALCC2420__GETADDRESS/APP         ----- -----
  +--> ?PR?HALCC2430RADIOP__HALCC2420__GETAD...

HALCC2430RADIOP__HALCC2420__GETADDRES...      ----- -----

SIMPLEMACM__SIGNALSENDPACKETDONE__RUN...      E8B9H E8B9H
  +--> ?PR?__NESC_ATOMIC_START?APP
  +--> ?PR?___NESC_ATOMIC_END?APP
  +--> ?PR?_SIMPLEMACM__SIMPLEMAC__SENDPACKE...

_SIMPLEMACM__SIMPLEMAC__SENDPACKETDON...      ----- -----
  +--> ?PR?_TESTAPPP__SIMPLEMAC__SENDPACKETD...

_TESTAPPP__SIMPLEMAC__SENDPACKETDONE/APP      E8BAH E8BDH
  +--> ?CO?APP
LX51 LINKER/LOCATER V4.17                                                             09/19/2014  22:51:52  PAGE 12


  +--> ?PR?_TESTAPPP__STDOUT__PRINT?APP
  +--> ?PR?_TESTAPPP__STDOUT__PRINTHEX?APP

HALCC2430RADIOP__INITTASK__RUNTASK/APP        ----- -----
  +--> ?PR?HALCC2430RADIOP__CC2430RESET?APP
  +--> ?PR?HALCC2430RADIOP__CC2430EXTERNALOS...
  +--> ?PR?_HALCC2430RADIOP__CC2420SETIEEEAD...
  +--> ?PR?_HALCC2430RADIOP__CC2430SETSHORTA...
  +--> ?PR?_HALCC2430RADIOP__CC2430SETPANID?APP
  +--> ?PR?HALCC2430RADIOP__CC2430CONTROLSET...
  +--> ?PR?_HALCC2430RADIOP__CC2430CHANNELSE...
  +--> ?PR?_HALCC2430RADIOP__CC2430PALEVELSE...
  +--> ?PR?HALCC2430RADIOP__CC2430RFDISABLE?APP
  +--> ?PR?HALCC2430RADIOP__INTERRUPTTXDONE_...
  +--> ?PR?HALCC2430RADIOP__INTERRUPTRFERR__...

HALCC2430RADIOP__CC2430RESET/APP              ----- -----

HALCC2430RADIOP__CC2430EXTERNALOSCILL...      ----- -----

_HALCC2430RADIOP__CC2420SETIEEEADDR/APP       ----- -----

_HALCC2430RADIOP__CC2430SETSHORTADDR/APP      ----- -----

_HALCC2430RADIOP__CC2430SETPANID/APP          ----- -----

HALCC2430RADIOP__CC2430CONTROLSET/APP         ----- -----

_HALCC2430RADIOP__CC2430CHANNELSET/APP        ----- -----

_HALCC2430RADIOP__CC2430PALEVELSET/APP        ----- -----

HALCC2430RADIOP__INTERRUPTTXDONE__ENA...      ----- -----
  +--> ?PR?HPLCC2430INTERRUPTSC__INTERRUPTTX...

HPLCC2430INTERRUPTSC__INTERRUPTTXDONE...      E8B9H E8B9H
  +--> ?PR?__NESC_ATOMIC_START?APP
  +--> ?PR?___NESC_ATOMIC_END?APP

HALCC2430RADIOP__INTERRUPTRFERR__ENAB...      ----- -----
  +--> ?PR?HPLCC2430INTERRUPTSC__INTERRUPTRF...

HPLCC2430INTERRUPTSC__INTERRUPTRFERR_...      E8B9H E8B9H
  +--> ?PR?__NESC_ATOMIC_START?APP
  +--> ?PR?___NESC_ATOMIC_END?APP

HALCC2430RADIOP__TRANSMITTASK__RUNTAS...      E8B9H E8BBH
  +--> ?PR?HALCC2430RADIOP__CC2430RXENABLE?APP
  +--> ?PR?_HALCC2430RADIOP__WAIT?APP
  +--> ?PR?HALCC2430RADIOP__CC2430RXDISABLE?APP
  +--> ?PR?_HALCC2430RADIOP__HALCC2420__SEND...
  +--> ?PR?__NESC_ATOMIC_START?APP
  +--> ?PR?___NESC_ATOMIC_END?APP

_HALCC2430RADIOP__HALCC2420__SENDPACK...      ----- -----
  +--> ?PR?_SIMPLEMACM__HALCC2420__SENDPACKE...

_SIMPLEMACM__HALCC2420__SENDPACKETDON...      E8BCH E8BFH
  +--> ?PR?__NESC_ATOMIC_START?APP
  +--> ?PR?___NESC_ATOMIC_END?APP
  +--> ?PR?SIMPLEMACM__SIGNALSENDPACKETDONE_...

SIMPLEMACM__SIGNALSENDPACKETDONE__POS...      ----- -----
  +--> ?PR?_SCHEDULERBASICP__TASKBASIC__POST...

LX51 LINKER/LOCATER V4.17                                                             09/19/2014  22:51:52  PAGE 13


HALCC2430RADIOP__SETCHANNELTASK__RUNT...      ----- -----
  +--> ?PR?HALCC2430RADIOP__CC2430TXWAIT?APP
  +--> ?PR?HALCC2430RADIOP__CC2430RXDISABLE?APP
  +--> ?PR?_HALCC2430RADIOP__CC2430CHANNELSE...
  +--> ?PR?HALCC2430RADIOP__CC2430RXENABLE?APP

HALCC2430RADIOP__RECEIVEDPACKETTASK__...      E8B9H E8B9H
  +--> ?PR?HALCC2430RADIOP__FLUSHBUFFERTASK_...
  +--> ?PR?___NESC_ATOMIC_END?APP
  +--> ?PR?__NESC_ATOMIC_START?APP
  +--> ?PR?HALCC2430RADIOP__RECEIVEDPACKETTA...
  +--> ?PR?_HALCC2430RADIOP__HALCC2420__RECE...
  +--> ?CO?APP
  +--> ?PR?_HALCC2430RADIOP__STDOUT__PRINT?APP

HALCC2430RADIOP__FLUSHBUFFERTASK__POS...      ----- -----
  +--> ?PR?_SCHEDULERBASICP__TASKBASIC__POST...

HALCC2430RADIOP__RECEIVEDPACKETTASK__...      ----- -----
  +--> ?PR?_SCHEDULERBASICP__TASKBASIC__POST...

_HALCC2430RADIOP__HALCC2420__RECEIVED...      ----- -----
  +--> ?PR?_SIMPLEMACM__HALCC2420__RECEIVEDP...

_SIMPLEMACM__HALCC2420__RECEIVEDPACKE...      E8BAH E8BFH
  +--> ?PR?_SIMPLEMACM__SIMPLEMAC__RECEIVEDP...

_SIMPLEMACM__SIMPLEMAC__RECEIVEDPACKE...      ----- -----
  +--> ?PR?_TESTAPPP__SIMPLEMAC__RECEIVEDPAC...

_TESTAPPP__SIMPLEMAC__RECEIVEDPACKET/APP      E8C0H E8C3H
  +--> ?CO?APP
  +--> ?PR?_TESTAPPP__STDOUT__PRINT?APP
  +--> ?PR?_TESTAPPP__STDOUT__PRINTHEX?APP
  +--> ?PR?_TESTAPPP__STDOUT__PRINTHEXWORD?APP

_TESTAPPP__STDOUT__PRINTHEXWORD/APP           ----- -----
  +--> ?PR?_STDOUTM__STDOUT__PRINTHEXWORD?APP

_STDOUTM__STDOUT__PRINTHEXWORD/APP            E8C4H E8C5H
  +--> ?PR?_STDOUTM__STDOUT__PRINTHEX?APP

_HALCC2430RADIOP__STDOUT__PRINT/APP           ----- -----
  +--> ?PR?_STDOUTM__STDOUT__PRINT?APP

HALCC2430RADIOP__FLUSHBUFFERTASK__RUN...      E8B9H E8B9H
  +--> ?PR?HALCC2430RADIOP__CC2430RXDISABLE?APP
  +--> ?PR?HALCC2430RADIOP__CC2430RXENABLE?APP
  +--> ?PR?__NESC_ATOMIC_START?APP
  +--> ?PR?___NESC_ATOMIC_END?APP
  +--> ?CO?APP
  +--> ?PR?_HALCC2430RADIOP__STDOUT__PRINT?APP

HALCC2430RADIOP__SENDPACKETDONETASK__...      ----- -----
  +--> ?PR?_HALCC2430RADIOP__HALCC2420__SEND...

ADCP__SIGNALREADDONE__RUNTASK/APP             ----- -----
  +--> ?PR?_ADCP__READ__READDONE?APP

_ADCP__READ__READDONE/APP                     E8B9H E8BCH
  +--> ?PR?_TESTAPPP__READ__READDONE?APP
  +--> ?PR?_ADCP__READ__DEFAULT__READDONE?APP

_TESTAPPP__READ__READDONE/APP                 E8BDH E8BFH
  +--> ?PR?TESTAPPP__READ__READ?APP
LX51 LINKER/LOCATER V4.17                                                             09/19/2014  22:51:52  PAGE 14


  +--> ?CO?APP
  +--> ?PR?_TESTAPPP__STDOUT__PRINT?APP
  +--> ?PR?_TESTAPPP__STDOUT__PRINTBASE10INT...

_TESTAPPP__STDOUT__PRINTBASE10INT16/APP       ----- -----
  +--> ?PR?_STDOUTM__STDOUT__PRINTBASE10INT1...

_STDOUTM__STDOUT__PRINTBASE10INT16/APP        E8C0H E8C4H
  +--> ?CO?APP
  +--> ?PR?_STDOUTM__STDOUT__PRINT?APP
  +--> ?PR?_STDOUTM__STDOUT__PRINTBASE10UINT...

_STDOUTM__STDOUT__PRINTBASE10UINT16/APP       E8C5H E8D1H
  +--> ?PR?_STDOUTM__STDOUT__PRINT?APP

_ADCP__READ__DEFAULT__READDONE/APP            E8BDH E8C0H

_SCHEDULERBASICP__TASKBASIC__DEFAULT_...      E8B9H E8B9H

REALMAINP__SOFTWAREINIT__INIT/APP             E8B6H E8B6H
  +--> ?PR?ADCP__INIT__INIT?APP
  +--> ?PR?HALFLASHP__INIT__INIT?APP
  +--> ?PR?_ECOMBINE?APP
  +--> ?PR?HALCC2430RADIOP__INIT__INIT?APP
  +--> ?PR?SIMPLEMACM__INIT__INIT?APP
  +--> ?PR?HALCC2430SIMPLEUARTP__INIT__INIT?APP
  +--> ?PR?STDOUTM__INIT__INIT?APP
  +--> ?PR?TESTAPPP__INIT__INIT?APP

ADCP__INIT__INIT/APP                          ----- -----

HALFLASHP__INIT__INIT/APP                     ----- -----

_ECOMBINE/APP                                 ----- -----

HALCC2430RADIOP__INIT__INIT/APP               ----- -----
  +--> ?PR?HALCC2430RADIOP__INITTASK__POSTTA...

HALCC2430RADIOP__INITTASK__POSTTASK/APP       ----- -----
  +--> ?PR?_SCHEDULERBASICP__TASKBASIC__POST...

SIMPLEMACM__INIT__INIT/APP                    ----- -----
  +--> ?PR?SIMPLEMACM__INITTASK__POSTTASK?APP

SIMPLEMACM__INITTASK__POSTTASK/APP            ----- -----
  +--> ?PR?_SCHEDULERBASICP__TASKBASIC__POST...

HALCC2430SIMPLEUARTP__INIT__INIT/APP          ----- -----

STDOUTM__INIT__INIT/APP                       ----- -----

TESTAPPP__INIT__INIT/APP                      ----- -----

__NESC_ENABLE_INTERRUPT/APP                   ----- -----

REALMAINP__BOOT__BOOTED/APP                   ----- -----
  +--> ?PR?TESTAPPP__BOOT__BOOTED?APP

TESTAPPP__BOOT__BOOTED/APP                    ----- -----
  +--> ?PR?TESTAPPP__LEDS__LED0OFF?APP
  +--> ?PR?TESTAPPP__LEDS__LED1OFF?APP
  +--> ?CO?APP
  +--> ?PR?_TESTAPPP__STDOUT__PRINT?APP
  +--> ?PR?_TESTAPPP__SIMPLEMAC__SETCHANNEL?APP
  +--> ?PR?_TESTAPPP__STDOUT__PRINTBASE10UIN...
LX51 LINKER/LOCATER V4.17                                                             09/19/2014  22:51:52  PAGE 15


  +--> ?PR?TESTAPPP__SIMPLEMACCONTROL__START...
  +--> ?PR?_TESTAPPP__ADCCONTROL__ENABLE?APP

_TESTAPPP__ADCCONTROL__ENABLE/APP             ----- -----
  +--> ?PR?_ADCP__ADCCONTROL__ENABLE?APP

_ADCP__ADCCONTROL__ENABLE/APP                 E8B6H E8B9H

REALMAINP__SCHEDULER__TASKLOOP/APP            ----- -----
  +--> ?PR?SCHEDULERBASICP__SCHEDULER__TASKL...

SCHEDULERBASICP__SCHEDULER__TASKLOOP/APP      E8B6H E8B7H
  +--> ?PR?__NESC_ATOMIC_START?APP
  +--> ?PR?SCHEDULERBASICP__POPTASK?APP
  +--> ?PR?SCHEDULERBASICP__MCUSLEEP__SLEEP?APP
  +--> ?PR?___NESC_ATOMIC_END?APP
  +--> ?PR?_SCHEDULERBASICP__TASKBASIC__RUNT...

SCHEDULERBASICP__MCUSLEEP__SLEEP/APP          ----- -----
  +--> ?PR?MCUSLEEPC__MCUSLEEP__SLEEP?APP

MCUSLEEPC__MCUSLEEP__SLEEP/APP                ----- -----
  +--> ?PR?__NESC_ENABLE_INTERRUPT?APP
  +--> ?PR?__NESC_DISABLE_INTERRUPT?APP

__NESC_DISABLE_INTERRUPT/APP                  ----- -----

?C_INITSEG                                    ----- -----

*** NEW ROOT ********************************

__VECTOR_2/APP                                ----- -----
  +--> ?PR?_HALCC2430SIMPLEUARTP__UART0__GET...

_HALCC2430SIMPLEUARTP__UART0__GET/APP         ----- -----
  +--> ?PR?_STDOUTM__UART__GET?APP

_STDOUTM__UART__GET/APP                       ----- -----
  +--> ?PR?_STDOUTM__STDOUT__GET?APP

_STDOUTM__STDOUT__GET/APP                     ----- -----
  +--> ?PR?_HALCC2430RADIOP__STDOUT__GET?APP
  +--> ?PR?_TESTAPPP__STDOUT__GET?APP

_HALCC2430RADIOP__STDOUT__GET/APP             E8DCH E8DCH

_TESTAPPP__STDOUT__GET/APP                    ----- -----
  +--> ?PR?TESTAPPP__LEDS__LED0TOGGLE?APP
  +--> ?PR?TESTAPPP__CONSOLETASK__POSTTASK?APP

TESTAPPP__LEDS__LED0TOGGLE/APP                ----- -----
  +--> ?PR?LEDSP__LEDS__LED0TOGGLE?APP

LEDSP__LEDS__LED0TOGGLE/APP                   ----- -----
  +--> ?PR?LEDSP__LED0__TOGGLE?APP

LEDSP__LED0__TOGGLE/APP                       ----- -----
  +--> ?PR?REVERSEGPIOP__0__OUT__TOGGLE?APP

REVERSEGPIOP__0__OUT__TOGGLE/APP              E8DCH E8DCH
  +--> ?PR?__NESC_ATOMIC_START?APP
  +--> ?PR?REVERSEGPIOP__0__IN__TOGGLE?APP
  +--> ?PR?___NESC_ATOMIC_END?APP

REVERSEGPIOP__0__IN__TOGGLE/APP               ----- -----
LX51 LINKER/LOCATER V4.17                                                             09/19/2014  22:51:52  PAGE 16


  +--> ?PR?HPLMCS51GENERALIOC__P10__TOGGLE?APP

HPLMCS51GENERALIOC__P10__TOGGLE/APP           ----- -----

TESTAPPP__CONSOLETASK__POSTTASK/APP           ----- -----
  +--> ?PR?_SCHEDULERBASICP__TASKBASIC__POST...

*** NEW ROOT ********************************

__VECTOR_7/APP                                E8DEH E8DEH
  +--> ?PR?__NESC_ATOMIC_START?APP
  +--> ?PR?___NESC_ATOMIC_END?APP
  +--> ?PR?HALCC2430SIMPLEUARTP__UART0__PUTD...

HALCC2430SIMPLEUARTP__UART0__PUTDONE/APP      ----- -----
  +--> ?PR?STDOUTM__UART__PUTDONE?APP

STDOUTM__UART__PUTDONE/APP                    E8DFH E8DFH
  +--> ?PR?__NESC_ATOMIC_START?APP
  +--> ?PR?_STDOUTM__UART__PUT?APP
  +--> ?PR?___NESC_ATOMIC_END?APP

*** NEW ROOT ********************************

__VECTOR_0/APP                                E8E0H E8E0H
  +--> ?PR?__NESC_ATOMIC_START?APP
  +--> ?PR?HPLCC2430INTERRUPTSC__INTERRUPTRF...
  +--> ?PR?___NESC_ATOMIC_END?APP

HPLCC2430INTERRUPTSC__INTERRUPTRFERR_...      ----- -----
  +--> ?PR?HALCC2430RADIOP__INTERRUPTRFERR__...

HALCC2430RADIOP__INTERRUPTRFERR__FIRE...      ----- -----
  +--> ?CO?APP
  +--> ?PR?_HALCC2430RADIOP__STDOUT__PRINT?APP
  +--> ?PR?HALCC2430RADIOP__FLUSHBUFFERTASK_...

*** NEW ROOT ********************************

__VECTOR_16/APP                               E8E8H E8EBH
  +--> ?PR?__NESC_ATOMIC_START?APP
  +--> ?PR?HPLCC2430INTERRUPTSC__INTERRUPTCC...
  +--> ?PR?HPLCC2430INTERRUPTSC__INTERRUPTFI...
  +--> ?PR?HPLCC2430INTERRUPTSC__INTERRUPTTX...
  +--> ?PR?_HPLCC2430INTERRUPTSC__CAPTURESFD...
  +--> ?PR?___NESC_ATOMIC_END?APP

HPLCC2430INTERRUPTSC__INTERRUPTCCA__F...      ----- -----
  +--> ?PR?HPLCC2430INTERRUPTSC__INTERRUPTCC...

HPLCC2430INTERRUPTSC__INTERRUPTCCA__D...      ----- -----

HPLCC2430INTERRUPTSC__INTERRUPTFIFOP_...      ----- -----
  +--> ?PR?HALCC2430RADIOP__INTERRUPTFIFOP__...

HALCC2430RADIOP__INTERRUPTFIFOP__FIRE...      ----- -----
  +--> ?PR?HALCC2430RADIOP__RECEIVEDPACKETTA...

HPLCC2430INTERRUPTSC__INTERRUPTTXDONE...      ----- -----
  +--> ?PR?HALCC2430RADIOP__INTERRUPTTXDONE_...

HALCC2430RADIOP__INTERRUPTTXDONE__FIR...      ----- -----
  +--> ?PR?HALCC2430RADIOP__SENDPACKETDONETA...
  +--> ?CO?APP
  +--> ?PR?_HALCC2430RADIOP__STDOUT__PRINT?APP
LX51 LINKER/LOCATER V4.17                                                             09/19/2014  22:51:52  PAGE 17



HALCC2430RADIOP__SENDPACKETDONETASK__...      ----- -----
  +--> ?PR?_SCHEDULERBASICP__TASKBASIC__POST...

_HPLCC2430INTERRUPTSC__CAPTURESFD__CA...      ----- -----
  +--> ?PR?_HPLCC2430INTERRUPTSC__CAPTURESFD...

_HPLCC2430INTERRUPTSC__CAPTURESFD__DE...      E8ECH E8EDH

*** NEW ROOT ********************************

__VECTOR_1/APP                                ----- -----
  +--> ?PR?ADCP__SIGNALREADDONE__POSTTASK?APP

ADCP__SIGNALREADDONE__POSTTASK/APP            ----- -----
  +--> ?PR?_SCHEDULERBASICP__TASKBASIC__POST...



PUBLIC SYMBOLS OF MODULE:  APP (?C_STARTUP)


      VALUE       CLASS    TYPE      PUBLIC SYMBOL NAME
      =================================================
      010003F0H   CODE     ---       ?C?CCASE
      01000195H   CODE     ---       ?C?CLDOPTR
      0100017CH   CODE     ---       ?C?CLDPTR
      00000000H   NUMBER   ---       ?C?CODESEG
      01000156H   CODE     ---       ?C?COPY
      010001D4H   CODE     ---       ?C?CSTOPTR
      010001C2H   CODE     ---       ?C?CSTPTR
      01000416H   CODE     ---       ?C?ICALL
      0100041AH   CODE     ---       ?C?ICALL2
      0100025DH   CODE     ---       ?C?IILDX
      0100029EH   CODE     ---       ?C?ILDOPTR
      01000273H   CODE     ---       ?C?ILDPTR
      010001F6H   CODE     ---       ?C?IMUL
      010002D6H   CODE     ---       ?C?ISTOPTR
      010003E4H   CODE     ---       ?C?LSTXDATA
      0100041CH   CODE     ---       ?C?MEMSET
      01000208H   CODE     ---       ?C?UIDIV
      0100033FH   CODE     ---       ?C?ULDIV
      010003D1H   CODE     ---       ?C?ULSHR
      00000000H   NUMBER   ---       ?C?XDATASEG
      0100165CH   CODE     ---       ?C_START
      01000000H   CODE     ---       ?C_STARTUP
      010020C7H   CODE     ---       ___NESC_ATOMIC_END
      01002153H   CODE     ---       __NESC_ATOMIC_START
      010019A1H   CODE     ---       __VECTOR_0
      01001903H   CODE     ---       __VECTOR_1
      010014E5H   CODE     ---       __VECTOR_16
      01001ABFH   CODE     ---       __VECTOR_2
      010018ADH   CODE     ---       __VECTOR_7
      0200E18AH   XDATA    ---       _HALFLASHP__WRITEFUNCTION
      0200E211H   XDATA    ---       ADCP__COUNTER
      0200E32DH   XDATA    ---       ADCP__INPUTS
      0200E216H   XDATA    ---       ADCP__INUSE
      0200E000H   XDATA    ---       ADCP__LASTID
      0200E32EH   XDATA    ---       ADCP__REFERENCES
      0200E350H   XDATA    ---       ADCP__RESOLUTIONS
      0200E32BH   XDATA    ---       ADCP__VALUE
      0200E2A8H   XDATA    ---       HALCC2430RADIOP__CURRENTCHANNEL
      0200E8B1H   XDATA    ---       HALCC2430RADIOP__FLUSHBUFFERTASKPOSTED
      0200E34CH   XDATA    ---       HALCC2430RADIOP__FRAMELENGTH
      0200E336H   XDATA    ---       HALCC2430RADIOP__IEEEADDRESS
LX51 LINKER/LOCATER V4.17                                                             09/19/2014  22:51:52  PAGE 18


      0200E8B2H   XDATA    ---       HALCC2430RADIOP__PANID
      0200E18DH   XDATA    ---       HALCC2430RADIOP__RECEIVEDPACKET
      0200E330H   XDATA    ---       HALCC2430RADIOP__RECEIVEDPACKETPTR
      0200E212H   XDATA    ---       HALCC2430RADIOP__RECEIVEDPACKETTASKPOSTED
      0200E189H   XDATA    ---       HALCC2430RADIOP__RECEIVEDPACKETTASKRETRIES
      0200E182H   XDATA    ---       HALCC2430RADIOP__RXENABLED
      0200E351H   XDATA    ---       HALCC2430RADIOP__SHORTADDRESS
      0200E8AAH   XDATA    ---       HALCC2430RADIOP__TRANSMITINPROGRESS
      0200E8AEH   XDATA    ---       HALCC2430RADIOP__TRANSMITPACKETPTR
      0200E8ABH   XDATA    ---       HALFLASHP__ERASEFUNCTION
      0200E340H   XDATA    ---       HALFLASHP__ERASEFUNCTIONBUFFER
      0200E459H   XDATA    ---       HALFLASHP__WRITEFUNCTIONBUFFER
      01001C87H   CODE     ---       MAIN
      0200E8B4H   XDATA    ---       SCHEDULERBASICP__M_HEAD
      0200E29AH   XDATA    ---       SCHEDULERBASICP__M_NEXT
      0200E20DH   XDATA    ---       SCHEDULERBASICP__M_TAIL
      0200E2ABH   XDATA    ---       SIMPLEMACM__RECEIVEDPACKET
      0200E456H   XDATA    ---       SIMPLEMACM__RECEIVEDPACKETPTR
      0200E333H   XDATA    ---       SIMPLEMACM__SENDPACKETPTR
      0200E20EH   XDATA    ---       SIMPLEMACM__SENDPACKETRESULT
      0200E186H   XDATA    ---       SIMPLEMACM__SHORTADDRESS
      0200E102H   XDATA    ---       SIMPLEMACM__TRANSMITBUFFER
      0200E4C2H   XDATA    ---       STDOUTM__BUFFER
      0200E2A5H   XDATA    ---       STDOUTM__BUFFEREND
      0200E183H   XDATA    ---       STDOUTM__BUFFERHEAD
      0200E213H   XDATA    ---       STDOUTM__BUFFERTAIL
      0200E217H   XDATA    ---       STDOUTM__COUNT
      0200E20FH   XDATA    ---       STDOUTM__ISOUTPUTTING
      0200E2A9H   XDATA    ---       TESTAPPP__CHANNEL
      0200E34BH   XDATA    ---       TESTAPPP__COUNTER
      0200E002H   XDATA    ---       TESTAPPP__DESTINATION
      0200E001H   XDATA    ---       TESTAPPP__KEYBUFFER
      0200E32FH   XDATA    ---       TESTAPPP__LEDON
      0200E219H   XDATA    ---       TESTAPPP__RADIOON
      0200E455H   XDATA    ---       TESTAPPP__RECEIVERON
      0200E2AAH   XDATA    ---       TESTAPPP__SEQUENCE
      0200E33EH   XDATA    ---       TESTAPPP__SHORTADDRESS
      0200E353H   XDATA    ---       TESTAPPP__SOURCE
      0200E21AH   XDATA    ---       TESTAPPP__TRANSMITPACKET
      0200E34DH   XDATA    ---       TESTAPPP__TRANSMITPACKETPTR
      0200E453H   XDATA    ---       TOS_NODE_ID



SYMBOL TABLE OF MODULE:  APP (?C_STARTUP)

      VALUE       REP       CLASS    TYPE      SYMBOL NAME
      ====================================================
      ---         MODULE    ---      ---       ?C_STARTUP
      01000000H   PUBLIC    CODE     ---       ?C_STARTUP
      000000E0H   SYMBOL    DATA     ---       ACC
      000000F0H   SYMBOL    DATA     ---       B
      00000083H   SYMBOL    DATA     ---       DPH
      00000082H   SYMBOL    DATA     ---       DPL
      00000000H   SYMBOL    NUMBER   ---       IBPSTACK
      00000100H   SYMBOL    NUMBER   ---       IBPSTACKTOP
      00000080H   SYMBOL    NUMBER   ---       IDATALEN
      01001618H   SYMBOL    CODE     ---       IDATALOOP
      00000000H   SYMBOL    NUMBER   ---       PBPSTACK
      00000100H   SYMBOL    NUMBER   ---       PBPSTACKTOP
      00000000H   SYMBOL    NUMBER   ---       PDATALEN
      00000000H   SYMBOL    NUMBER   ---       PDATASTART
      00000000H   SYMBOL    NUMBER   ---       PPAGE
      00000000H   SYMBOL    NUMBER   ---       PPAGEENABLE
      000000A0H   SYMBOL    DATA     ---       PPAGE_SFR
LX51 LINKER/LOCATER V4.17                                                             09/19/2014  22:51:52  PAGE 19


      00000081H   SYMBOL    DATA     ---       SP
      01001615H   SYMBOL    CODE     ---       STARTUP1
      00000000H   SYMBOL    NUMBER   ---       XBPSTACK
      00000000H   SYMBOL    NUMBER   ---       XBPSTACKTOP
      00000000H   SYMBOL    NUMBER   ---       XDATALEN
      00000000H   SYMBOL    NUMBER   ---       XDATASTART
      01000000H   LINE      CODE     ---       #126
      01001615H   LINE      CODE     ---       #133
      01001617H   LINE      CODE     ---       #134
      01001618H   LINE      CODE     ---       #135
      01001619H   LINE      CODE     ---       #136
      0100161BH   LINE      CODE     ---       #185
      0100161EH   LINE      CODE     ---       #196

      ---         MODULE    ---      ---       APP
      0200E8B4H   PUBLIC    XDATA    ---       SCHEDULERBASICP__M_HEAD
      0200E8B2H   PUBLIC    XDATA    ---       HALCC2430RADIOP__PANID
      0200E8B1H   PUBLIC    XDATA    ---       HALCC2430RADIOP__FLUSHBUFFERTASKPOSTED
      0200E8AEH   PUBLIC    XDATA    ---       HALCC2430RADIOP__TRANSMITPACKETPTR
      0200E8ABH   PUBLIC    XDATA    ---       HALFLASHP__ERASEFUNCTION
      0200E8AAH   PUBLIC    XDATA    ---       HALCC2430RADIOP__TRANSMITINPROGRESS
      0200E4C2H   PUBLIC    XDATA    ---       STDOUTM__BUFFER
      0200E459H   PUBLIC    XDATA    ---       HALFLASHP__WRITEFUNCTIONBUFFER
      0200E456H   PUBLIC    XDATA    ---       SIMPLEMACM__RECEIVEDPACKETPTR
      0200E455H   PUBLIC    XDATA    ---       TESTAPPP__RECEIVERON
      0200E453H   PUBLIC    XDATA    ---       TOS_NODE_ID
      0200E353H   PUBLIC    XDATA    ---       TESTAPPP__SOURCE
      0200E351H   PUBLIC    XDATA    ---       HALCC2430RADIOP__SHORTADDRESS
      0200E350H   PUBLIC    XDATA    ---       ADCP__RESOLUTIONS
      0200E34DH   PUBLIC    XDATA    ---       TESTAPPP__TRANSMITPACKETPTR
      0200E34CH   PUBLIC    XDATA    ---       HALCC2430RADIOP__FRAMELENGTH
      0200E34BH   PUBLIC    XDATA    ---       TESTAPPP__COUNTER
      0200E340H   PUBLIC    XDATA    ---       HALFLASHP__ERASEFUNCTIONBUFFER
      0200E33EH   PUBLIC    XDATA    ---       TESTAPPP__SHORTADDRESS
      0200E336H   PUBLIC    XDATA    ---       HALCC2430RADIOP__IEEEADDRESS
      0200E333H   PUBLIC    XDATA    ---       SIMPLEMACM__SENDPACKETPTR
      0200E330H   PUBLIC    XDATA    ---       HALCC2430RADIOP__RECEIVEDPACKETPTR
      0200E32FH   PUBLIC    XDATA    ---       TESTAPPP__LEDON
      0200E32EH   PUBLIC    XDATA    ---       ADCP__REFERENCES
      0200E32DH   PUBLIC    XDATA    ---       ADCP__INPUTS
      0200E32BH   PUBLIC    XDATA    ---       ADCP__VALUE
      0200E2ABH   PUBLIC    XDATA    ---       SIMPLEMACM__RECEIVEDPACKET
      0200E2AAH   PUBLIC    XDATA    ---       TESTAPPP__SEQUENCE
      0200E2A9H   PUBLIC    XDATA    ---       TESTAPPP__CHANNEL
      0200E2A8H   PUBLIC    XDATA    ---       HALCC2430RADIOP__CURRENTCHANNEL
      0200E2A5H   PUBLIC    XDATA    ---       STDOUTM__BUFFEREND
      0200E29AH   PUBLIC    XDATA    ---       SCHEDULERBASICP__M_NEXT
      0200E21AH   PUBLIC    XDATA    ---       TESTAPPP__TRANSMITPACKET
      0200E219H   PUBLIC    XDATA    ---       TESTAPPP__RADIOON
      0200E217H   PUBLIC    XDATA    ---       STDOUTM__COUNT
      0200E216H   PUBLIC    XDATA    ---       ADCP__INUSE
      0200E213H   PUBLIC    XDATA    ---       STDOUTM__BUFFERTAIL
      0200E212H   PUBLIC    XDATA    ---       HALCC2430RADIOP__RECEIVEDPACKETTASKPOSTED
      0200E211H   PUBLIC    XDATA    ---       ADCP__COUNTER
      0200E20FH   PUBLIC    XDATA    ---       STDOUTM__ISOUTPUTTING
      0200E20EH   PUBLIC    XDATA    ---       SIMPLEMACM__SENDPACKETRESULT
      0200E20DH   PUBLIC    XDATA    ---       SCHEDULERBASICP__M_TAIL
      0200E18DH   PUBLIC    XDATA    ---       HALCC2430RADIOP__RECEIVEDPACKET
      0200E18AH   PUBLIC    XDATA    ---       _HALFLASHP__WRITEFUNCTION
      0200E189H   PUBLIC    XDATA    ---       HALCC2430RADIOP__RECEIVEDPACKETTASKRETRIES
      0200E186H   PUBLIC    XDATA    ---       SIMPLEMACM__SHORTADDRESS
      0200E183H   PUBLIC    XDATA    ---       STDOUTM__BUFFERHEAD
      0200E182H   PUBLIC    XDATA    ---       HALCC2430RADIOP__RXENABLED
      0200E102H   PUBLIC    XDATA    ---       SIMPLEMACM__TRANSMITBUFFER
      0200E002H   PUBLIC    XDATA    ---       TESTAPPP__DESTINATION
LX51 LINKER/LOCATER V4.17                                                             09/19/2014  22:51:52  PAGE 20


      0200E001H   PUBLIC    XDATA    ---       TESTAPPP__KEYBUFFER
      0200E000H   PUBLIC    XDATA    ---       ADCP__LASTID
      01001903H   PUBLIC    CODE     ---       __VECTOR_1
      010014E5H   PUBLIC    CODE     ---       __VECTOR_16
      010019A1H   PUBLIC    CODE     ---       __VECTOR_0
      010018ADH   PUBLIC    CODE     ---       __VECTOR_7
      01001ABFH   PUBLIC    CODE     ---       __VECTOR_2
      01001C87H   PUBLIC    CODE     ---       MAIN
      010020C7H   PUBLIC    CODE     ---       ___NESC_ATOMIC_END
      01002153H   PUBLIC    CODE     ---       __NESC_ATOMIC_START

      ---         MODULE    ---      ---       ?C_INIT
      0100165CH   PUBLIC    CODE     ---       ?C_START

      ---         MODULE    ---      ---       ?C?COPY
      01000156H   PUBLIC    CODE     ---       ?C?COPY

      ---         MODULE    ---      ---       ?C?CLDPTR
      0100017CH   PUBLIC    CODE     ---       ?C?CLDPTR

      ---         MODULE    ---      ---       ?C?CLDOPTR
      01000195H   PUBLIC    CODE     ---       ?C?CLDOPTR

      ---         MODULE    ---      ---       ?C?CSTPTR
      010001C2H   PUBLIC    CODE     ---       ?C?CSTPTR

      ---         MODULE    ---      ---       ?C?CSTOPTR
      010001D4H   PUBLIC    CODE     ---       ?C?CSTOPTR

      ---         MODULE    ---      ---       ?C?IMUL
      010001F6H   PUBLIC    CODE     ---       ?C?IMUL

      ---         MODULE    ---      ---       ?C?UIDIV
      01000208H   PUBLIC    CODE     ---       ?C?UIDIV

      ---         MODULE    ---      ---       ?C?IILDX
      0100025DH   PUBLIC    CODE     ---       ?C?IILDX

      ---         MODULE    ---      ---       ?C?ILDPTR
      01000273H   PUBLIC    CODE     ---       ?C?ILDPTR

      ---         MODULE    ---      ---       ?C?ILDOPTR
      0100029EH   PUBLIC    CODE     ---       ?C?ILDOPTR

      ---         MODULE    ---      ---       ?C?ISTOPTR
      010002D6H   PUBLIC    CODE     ---       ?C?ISTOPTR

      ---         MODULE    ---      ---       ?C?ULDIV
      0100033FH   PUBLIC    CODE     ---       ?C?ULDIV

      ---         MODULE    ---      ---       ?C?ULSHR
      010003D1H   PUBLIC    CODE     ---       ?C?ULSHR

      ---         MODULE    ---      ---       ?C?LSTXDATA
      010003E4H   PUBLIC    CODE     ---       ?C?LSTXDATA

      ---         MODULE    ---      ---       ?C?CCASE
      010003F0H   PUBLIC    CODE     ---       ?C?CCASE

      ---         MODULE    ---      ---       ?C?ICALL
      01000416H   PUBLIC    CODE     ---       ?C?ICALL
      0100041AH   PUBLIC    CODE     ---       ?C?ICALL2

      ---         MODULE    ---      ---       ?C?MEMSET
      0100041CH   PUBLIC    CODE     ---       ?C?MEMSET
LX51 LINKER/LOCATER V4.17                                                             09/19/2014  22:51:52  PAGE 21





FUNCTION REGISTER MASKS


FUNCTION . . . . . . . . . . . . . . . . . REG MASK
=======================================================

___NESC_ATOMIC_END . . . . . . . . . . . . @0x18000800
__NESC_ATOMIC_START. . . . . . . . . . . . @0x18000880
__VECTOR_7 . . . . . . . . . . . . . . . . @0x1e000cbf



*** WARNING L15: MULTIPLE CALL TO FUNCTION
    NAME:    _SCHEDULERBASICP__TASKBASIC__POSTTASK/APP
    CALLER1: ?C_C51STARTUP
    CALLER2: __VECTOR_2/APP

*** WARNING L15: MULTIPLE CALL TO FUNCTION
    NAME:    _STDOUTM__STDOUT__PRINT/APP
    CALLER1: ?C_C51STARTUP
    CALLER2: __VECTOR_0/APP

*** WARNING L15: MULTIPLE CALL TO FUNCTION
    NAME:    _SCHEDULERBASICP__TASKBASIC__POSTTASK/APP
    CALLER1: __VECTOR_2/APP
    CALLER2: __VECTOR_0/APP

*** WARNING L15: MULTIPLE CALL TO FUNCTION
    NAME:    _SCHEDULERBASICP__TASKBASIC__POSTTASK/APP
    CALLER1: __VECTOR_0/APP
    CALLER2: __VECTOR_16/APP

*** WARNING L15: MULTIPLE CALL TO FUNCTION
    NAME:    _STDOUTM__STDOUT__PRINT/APP
    CALLER1: __VECTOR_0/APP
    CALLER2: __VECTOR_16/APP

*** WARNING L15: MULTIPLE CALL TO FUNCTION
    NAME:    _SCHEDULERBASICP__TASKBASIC__POSTTASK/APP
    CALLER1: __VECTOR_16/APP
    CALLER2: __VECTOR_1/APP

Program Size: data=9.0 xdata=2293 const=0 code=9174
LX51 RUN COMPLETE.  6 WARNING(S),  0 ERROR(S)
