LX51 LINKER/LOCATER V4.17                                                               09/20/2014  13:14:45  PAGE 1


LX51 LINKER/LOCATER V4.17, INVOKED BY:
C:\KEIL\C51\BIN\LX51.EXE STARTUP.OBJ, APP.OBJ TO APP PRINT (app.map) CLASSES (XDATA (X:0XE000-X:0XFF00), IDATA (I:0-I:0X
>> FF)) REGFILE (app.reg) 


CPU MODE:     8051 MODE
MEMORY MODEL: LARGE


INPUT MODULES INCLUDED:
  STARTUP.OBJ (?C_STARTUP)
         COMMENT TYPE 1: A51 / ASM51 Assembler
  APP.OBJ (APP)
         COMMENT TYPE 1: C51 Compiler
  C:\KEIL\C51\LIB\C51L.LIB (?C_INIT)
         COMMENT TYPE 1: A51 / ASM51 Assembler
  C:\KEIL\C51\LIB\C51L.LIB (?C?MEMSET)
         COMMENT TYPE 1: A51 / ASM51 Assembler


ACTIVE MEMORY CLASSES OF MODULE:  APP (?C_STARTUP)

BASE        START       END         USED      MEMORY CLASS
==========================================================
X:000000H   X:00E000H   X:00FF00H   00000BH   XDATA
I:000000H   I:000000H   I:0000FFH   000001H   IDATA
C:000000H   C:000000H   C:00FFFFH   0003C9H   CODE
I:000000H   I:000000H   I:00007FH   000008H   DATA


MEMORY MAP OF MODULE:  APP (?C_STARTUP)


START     STOP      LENGTH    ALIGN  RELOC    MEMORY CLASS   SEGMENT NAME
=========================================================================

* * * * * * * * * * *   D A T A   M E M O R Y   * * * * * * * * * * * * *
000000H   000007H   000008H   ---    AT..     DATA           "REG BANK 0"
000008H   000008H   000001H   BYTE   UNIT     IDATA          ?STACK

* * * * * * * * * * *   C O D E   M E M O R Y   * * * * * * * * * * * * *
000000H   000002H   000003H   ---    OFFS..   CODE           ?CO??C_STARTUP?0
000003H   000012H   000010H   BYTE   UNIT     CODE           ?PR?REVERSEGPIOP__1__OUT__TOGGLE?APP
000013H   000015H   000003H   ---    OFFS..   CODE           ?CO?APP?0
000016H   000038H   000023H   BYTE   UNIT     CODE           ?PR?__VECTOR_2?APP
000039H   000039H   000001H   BYTE   UNIT     CODE           ?PR?NOPINC__0__GENERALIO__SET?APP
00003AH   00003AH   000001H   BYTE   UNIT     CODE           ?PR?NOPINC__0__GENERALIO__MAKEOUTPUT?APP
00003BH   00003DH   000003H   ---    OFFS..   CODE           ?CO?APP?1
00003EH   0000C9H   00008CH   BYTE   UNIT     CODE           ?C_C51STARTUP
0000CAH   00010BH   000042H   BYTE   UNIT     CODE           ?PR?__VECTOR_7?APP
00010CH   000144H   000039H   BYTE   UNIT     CODE           ?PR?SCHEDULERBASICP__POPTASK?APP
000145H   000177H   000033H   BYTE   UNIT     CODE           ?PR?MAIN?APP
000178H   0001A3H   00002CH   BYTE   UNIT     CODE           ?C?LIB_CODE
0001A4H   0001CDH   00002AH   BYTE   UNIT     CODE           ?PR?SCHEDULERBASICP__SCHEDULER__TASKLOOP?APP
0001CEH   0001F7H   00002AH   BYTE   UNIT     CODE           ?PR?_SCHEDULERBASICP__PUSHTASK?APP
0001F8H   000220H   000029H   BYTE   UNIT     CODE           ?PR?_SCHEDULERBASICP__TASKBASIC__POSTTASK?APP
000221H   000248H   000028H   BYTE   UNIT     CODE           ?PR?HALCC2430SIMPLEUARTP__INIT__INIT?APP
000249H   000264H   00001CH   BYTE   UNIT     CODE           ?PR?_SCHEDULERBASICP__ISWAITING?APP
000265H   00027EH   00001AH   BYTE   UNIT     CODE           ?PR?SCHEDULERBASICP__SCHEDULER__INIT?APP
00027FH   000294H   000016H   BYTE   UNIT     CODE           ?PR?PLATFORMP__INIT__INIT?APP
000295H   0002A9H   000015H   BYTE   UNIT     CODE           ?PR?LEDSP__INIT__INIT?APP
0002AAH   0002BDH   000014H   BYTE   UNIT     CODE           ?PR?SCHEDULERBASICP__SCHEDULER__RUNNEXTTASK?APP
0002BEH   0002CFH   000012H   BYTE   UNIT     CODE           ?PR?_ECHOP__UART0__GET?APP
0002D0H   0002DFH   000010H   BYTE   UNIT     CODE           ?PR?REVERSEGPIOP__0__OUT__TOGGLE?APP
0002E0H   0002EAH   00000BH   BYTE   UNIT     CODE           ?PR?ECHOP__BOOT__BOOTED?APP
0002EBH   0002F4H   00000AH   BYTE   UNIT     CODE           ?PR?_SCHEDULERBASICP__TASKBASIC__RUNTASK?APP
LX51 LINKER/LOCATER V4.17                                                             09/20/2014  13:14:45  PAGE 2


0002F5H   0002FDH   000009H   BYTE   UNIT     CODE           ?PR?MCUSLEEPC__MCUSLEEP__SLEEP?APP
0002FEH   000305H   000008H   BYTE   UNIT     CODE           ?PR?__NESC_ATOMIC_START?APP
000306H   00030DH   000008H   BYTE   UNIT     CODE           ?PR?ECHOP__PRINT__RUNTASK?APP
00030EH   000313H   000006H   BYTE   UNIT     CODE           ?PR?___NESC_ATOMIC_END?APP
000314H   000319H   000006H   BYTE   UNIT     CODE           ?PR?_SCHEDULERBASICP__TASKBASIC__DEFAULT__RUNTASK?APP
00031AH   00031FH   000006H   BYTE   UNIT     CODE           ?PR?ECHOP__PRINT__POSTTASK?APP
000320H   000324H   000005H   BYTE   UNIT     CODE           ?PR?_HALCC2430SIMPLEUARTP__UART0__PUT?APP
000325H   000329H   000005H   BYTE   UNIT     CODE           ?C_INITSEG
00032AH   00032DH   000004H   BYTE   UNIT     CODE           ?PR?HPLMCS51GENERALIOC__P13__MAKEOUTPUT?APP
00032EH   000331H   000004H   BYTE   UNIT     CODE           ?PR?HPLMCS51GENERALIOC__P20__MAKEOUTPUT?APP
000332H   000335H   000004H   BYTE   UNIT     CODE           ?PR?PLATFORMP__LEDSINIT__INIT?APP
000336H   000339H   000004H   BYTE   UNIT     CODE           ?PR?REALMAINP__PLATFORMINIT__INIT?APP
00033AH   00033DH   000004H   BYTE   UNIT     CODE           ?PR?REALMAINP__SCHEDULER__RUNNEXTTASK?APP
00033EH   000341H   000004H   BYTE   UNIT     CODE           ?PR?REALMAINP__SOFTWAREINIT__INIT?APP
000342H   000345H   000004H   BYTE   UNIT     CODE           ?PR?_ECHOP__UART0__PUT?APP
000346H   000348H   000003H   BYTE   UNIT     CODE           ?PR?REALMAINP__SCHEDULER__INIT?APP
000349H   00034BH   000003H   BYTE   UNIT     CODE           ?PR?HPLMCS51GENERALIOC__P13__CLR?APP
00034CH   00034EH   000003H   BYTE   UNIT     CODE           ?PR?REVERSEGPIOP__1__IN__CLR?APP
00034FH   000351H   000003H   BYTE   UNIT     CODE           ?PR?REVERSEGPIOP__1__OUT__SET?APP
000352H   000354H   000003H   BYTE   UNIT     CODE           ?PR?LEDSP__LED2__SET?APP
000355H   000357H   000003H   BYTE   UNIT     CODE           ?PR?LEDSP__LED1__SET?APP
000358H   00035AH   000003H   BYTE   UNIT     CODE           ?PR?HPLMCS51GENERALIOC__P20__CLR?APP
00035BH   00035DH   000003H   BYTE   UNIT     CODE           ?PR?REVERSEGPIOP__0__IN__CLR?APP
00035EH   000360H   000003H   BYTE   UNIT     CODE           ?PR?REVERSEGPIOP__0__OUT__SET?APP
000361H   000363H   000003H   BYTE   UNIT     CODE           ?PR?LEDSP__LED0__SET?APP
000364H   000366H   000003H   BYTE   UNIT     CODE           ?PR?REVERSEGPIOP__1__IN__MAKEOUTPUT?APP
000367H   000369H   000003H   BYTE   UNIT     CODE           ?PR?REVERSEGPIOP__1__OUT__MAKEOUTPUT?APP
00036AH   00036CH   000003H   BYTE   UNIT     CODE           ?PR?LEDSP__LED2__MAKEOUTPUT?APP
00036DH   00036FH   000003H   BYTE   UNIT     CODE           ?PR?LEDSP__LED1__MAKEOUTPUT?APP
000370H   000372H   000003H   BYTE   UNIT     CODE           ?PR?REVERSEGPIOP__0__IN__MAKEOUTPUT?APP
000373H   000375H   000003H   BYTE   UNIT     CODE           ?PR?REVERSEGPIOP__0__OUT__MAKEOUTPUT?APP
000376H   000378H   000003H   BYTE   UNIT     CODE           ?PR?LEDSP__LED0__MAKEOUTPUT?APP
000379H   00037BH   000003H   BYTE   UNIT     CODE           ?PR?HPLMCS51GENERALIOC__P20__SET?APP
00037CH   00037EH   000003H   BYTE   UNIT     CODE           ?PR?REVERSEGPIOP__0__IN__SET?APP
00037FH   000381H   000003H   BYTE   UNIT     CODE           ?PR?REVERSEGPIOP__0__OUT__CLR?APP
000382H   000384H   000003H   BYTE   UNIT     CODE           ?PR?LEDSP__LED0__CLR?APP
000385H   000387H   000003H   BYTE   UNIT     CODE           ?PR?LEDSP__LEDS__LED0ON?APP
000388H   00038AH   000003H   BYTE   UNIT     CODE           ?PR?ECHOP__LEDS__LED0ON?APP
00038BH   00038DH   000003H   BYTE   UNIT     CODE           ?PR?REALMAINP__BOOT__BOOTED?APP
00038EH   000390H   000003H   BYTE   UNIT     CODE           ?PR?__NESC_DISABLE_INTERRUPT?APP
000391H   000393H   000003H   BYTE   UNIT     CODE           ?PR?__NESC_ENABLE_INTERRUPT?APP
000394H   000396H   000003H   BYTE   UNIT     CODE           ?PR?SCHEDULERBASICP__MCUSLEEP__SLEEP?APP
000397H   000399H   000003H   BYTE   UNIT     CODE           ?PR?REALMAINP__SCHEDULER__TASKLOOP?APP
00039AH   00039CH   000003H   BYTE   UNIT     CODE           ?PR?HPLMCS51GENERALIOC__P13__TOGGLE?APP
00039DH   00039FH   000003H   BYTE   UNIT     CODE           ?PR?REVERSEGPIOP__1__IN__TOGGLE?APP
0003A0H   0003A2H   000003H   BYTE   UNIT     CODE           ?PR?LEDSP__LED2__TOGGLE?APP
0003A3H   0003A5H   000003H   BYTE   UNIT     CODE           ?PR?LEDSP__LEDS__LED2TOGGLE?APP
0003A6H   0003A8H   000003H   BYTE   UNIT     CODE           ?PR?ECHOP__LEDS__LED2TOGGLE?APP
0003A9H   0003ABH   000003H   BYTE   UNIT     CODE           ?PR?LEDSP__LED1__TOGGLE?APP
0003ACH   0003AEH   000003H   BYTE   UNIT     CODE           ?PR?LEDSP__LEDS__LED1TOGGLE?APP
0003AFH   0003B1H   000003H   BYTE   UNIT     CODE           ?PR?ECHOP__LEDS__LED1TOGGLE?APP
0003B2H   0003B4H   000003H   BYTE   UNIT     CODE           ?PR?HPLMCS51GENERALIOC__P20__TOGGLE?APP
0003B5H   0003B7H   000003H   BYTE   UNIT     CODE           ?PR?REVERSEGPIOP__0__IN__TOGGLE?APP
0003B8H   0003BAH   000003H   BYTE   UNIT     CODE           ?PR?LEDSP__LED0__TOGGLE?APP
0003BBH   0003BDH   000003H   BYTE   UNIT     CODE           ?PR?LEDSP__LEDS__LED0TOGGLE?APP
0003BEH   0003C0H   000003H   BYTE   UNIT     CODE           ?PR?ECHOP__LEDS__LED0TOGGLE?APP
0003C1H   0003C3H   000003H   BYTE   UNIT     CODE           ?PR?_HALCC2430SIMPLEUARTP__UART0__GET?APP
0003C4H   0003C6H   000003H   BYTE   UNIT     CODE           ?PR?HALCC2430SIMPLEUARTP__UART0__PUTDONE?APP
0003C7H   0003C7H   000001H   BYTE   UNIT     CODE           ?PR?NOPINC__0__GENERALIO__TOGGLE?APP
0003C8H   0003C8H   000001H   BYTE   UNIT     CODE           ?PR?ECHOP__UART0__PUTDONE?APP

* * * * * * * * * * *  X D A T A   M E M O R Y  * * * * * * * * * * * * *
00E000H   00E006H   000007H   BYTE   UNIT     XDATA          _XDATA_GROUP_
00E007H   00E00AH   000004H   BYTE   UNIT     XDATA          ?XD?APP

LX51 LINKER/LOCATER V4.17                                                             09/20/2014  13:14:45  PAGE 3




OVERLAY MAP OF MODULE:   APP (?C_STARTUP)


FUNCTION/MODULE                               XDATA_GROUP
--> CALLED FUNCTION/MODULE                    START  STOP
=========================================================
?C_C51STARTUP                                 ----- -----
  +--> ?PR?MAIN?APP
  +--> ?C_INITSEG

MAIN/APP                                      E000H E000H
  +--> ?PR?__NESC_ATOMIC_START?APP
  +--> ?PR?REALMAINP__SCHEDULER__INIT?APP
  +--> ?PR?REALMAINP__PLATFORMINIT__INIT?APP
  +--> ?PR?REALMAINP__SCHEDULER__RUNNEXTTASK...
  +--> ?PR?REALMAINP__SOFTWAREINIT__INIT?APP
  +--> ?PR?___NESC_ATOMIC_END?APP
  +--> ?PR?__NESC_ENABLE_INTERRUPT?APP
  +--> ?PR?REALMAINP__BOOT__BOOTED?APP
  +--> ?PR?REALMAINP__SCHEDULER__TASKLOOP?APP

__NESC_ATOMIC_START/APP                       ----- -----

REALMAINP__SCHEDULER__INIT/APP                ----- -----
  +--> ?PR?SCHEDULERBASICP__SCHEDULER__INIT?APP

SCHEDULERBASICP__SCHEDULER__INIT/APP          ----- -----

REALMAINP__PLATFORMINIT__INIT/APP             ----- -----
  +--> ?PR?PLATFORMP__INIT__INIT?APP

PLATFORMP__INIT__INIT/APP                     ----- -----
  +--> ?PR?PLATFORMP__LEDSINIT__INIT?APP

PLATFORMP__LEDSINIT__INIT/APP                 ----- -----
  +--> ?PR?LEDSP__INIT__INIT?APP

LEDSP__INIT__INIT/APP                         ----- -----
  +--> ?PR?LEDSP__LED0__MAKEOUTPUT?APP
  +--> ?PR?LEDSP__LED1__MAKEOUTPUT?APP
  +--> ?PR?LEDSP__LED2__MAKEOUTPUT?APP
  +--> ?PR?LEDSP__LED0__SET?APP
  +--> ?PR?LEDSP__LED1__SET?APP
  +--> ?PR?LEDSP__LED2__SET?APP

LEDSP__LED0__MAKEOUTPUT/APP                   ----- -----
  +--> ?PR?REVERSEGPIOP__0__OUT__MAKEOUTPUT?APP

REVERSEGPIOP__0__OUT__MAKEOUTPUT/APP          ----- -----
  +--> ?PR?REVERSEGPIOP__0__IN__MAKEOUTPUT?APP

REVERSEGPIOP__0__IN__MAKEOUTPUT/APP           ----- -----
  +--> ?PR?HPLMCS51GENERALIOC__P20__MAKEOUTP...

HPLMCS51GENERALIOC__P20__MAKEOUTPUT/APP       ----- -----

LEDSP__LED1__MAKEOUTPUT/APP                   ----- -----
  +--> ?PR?NOPINC__0__GENERALIO__MAKEOUTPUT?APP

NOPINC__0__GENERALIO__MAKEOUTPUT/APP          ----- -----

LEDSP__LED2__MAKEOUTPUT/APP                   ----- -----
  +--> ?PR?REVERSEGPIOP__1__OUT__MAKEOUTPUT?APP
LX51 LINKER/LOCATER V4.17                                                             09/20/2014  13:14:45  PAGE 4



REVERSEGPIOP__1__OUT__MAKEOUTPUT/APP          ----- -----
  +--> ?PR?REVERSEGPIOP__1__IN__MAKEOUTPUT?APP

REVERSEGPIOP__1__IN__MAKEOUTPUT/APP           ----- -----
  +--> ?PR?HPLMCS51GENERALIOC__P13__MAKEOUTP...

HPLMCS51GENERALIOC__P13__MAKEOUTPUT/APP       ----- -----

LEDSP__LED0__SET/APP                          ----- -----
  +--> ?PR?REVERSEGPIOP__0__OUT__SET?APP

REVERSEGPIOP__0__OUT__SET/APP                 ----- -----
  +--> ?PR?REVERSEGPIOP__0__IN__CLR?APP

REVERSEGPIOP__0__IN__CLR/APP                  ----- -----
  +--> ?PR?HPLMCS51GENERALIOC__P20__CLR?APP

HPLMCS51GENERALIOC__P20__CLR/APP              ----- -----

LEDSP__LED1__SET/APP                          ----- -----
  +--> ?PR?NOPINC__0__GENERALIO__SET?APP

NOPINC__0__GENERALIO__SET/APP                 ----- -----

LEDSP__LED2__SET/APP                          ----- -----
  +--> ?PR?REVERSEGPIOP__1__OUT__SET?APP

REVERSEGPIOP__1__OUT__SET/APP                 ----- -----
  +--> ?PR?REVERSEGPIOP__1__IN__CLR?APP

REVERSEGPIOP__1__IN__CLR/APP                  ----- -----
  +--> ?PR?HPLMCS51GENERALIOC__P13__CLR?APP

HPLMCS51GENERALIOC__P13__CLR/APP              ----- -----

REALMAINP__SCHEDULER__RUNNEXTTASK/APP         ----- -----
  +--> ?PR?SCHEDULERBASICP__SCHEDULER__RUNNE...

SCHEDULERBASICP__SCHEDULER__RUNNEXTTA...      E001H E001H
  +--> ?PR?SCHEDULERBASICP__POPTASK?APP
  +--> ?PR?_SCHEDULERBASICP__TASKBASIC__RUNT...

SCHEDULERBASICP__POPTASK/APP                  E003H E003H

_SCHEDULERBASICP__TASKBASIC__RUNTASK/APP      ----- -----
  +--> ?PR?ECHOP__PRINT__RUNTASK?APP
  +--> ?PR?_SCHEDULERBASICP__TASKBASIC__DEFA...

ECHOP__PRINT__RUNTASK/APP                     ----- -----
  +--> ?PR?_ECHOP__UART0__PUT?APP

_ECHOP__UART0__PUT/APP                        ----- -----
  +--> ?PR?_HALCC2430SIMPLEUARTP__UART0__PUT...

_HALCC2430SIMPLEUARTP__UART0__PUT/APP         ----- -----

_SCHEDULERBASICP__TASKBASIC__DEFAULT_...      E003H E003H

REALMAINP__SOFTWAREINIT__INIT/APP             ----- -----
  +--> ?PR?HALCC2430SIMPLEUARTP__INIT__INIT?APP

HALCC2430SIMPLEUARTP__INIT__INIT/APP          ----- -----

___NESC_ATOMIC_END/APP                        ----- -----
LX51 LINKER/LOCATER V4.17                                                             09/20/2014  13:14:45  PAGE 5



__NESC_ENABLE_INTERRUPT/APP                   ----- -----

REALMAINP__BOOT__BOOTED/APP                   ----- -----
  +--> ?PR?ECHOP__BOOT__BOOTED?APP

ECHOP__BOOT__BOOTED/APP                       ----- -----
  +--> ?PR?ECHOP__LEDS__LED0ON?APP
  +--> ?PR?_ECHOP__UART0__PUT?APP

ECHOP__LEDS__LED0ON/APP                       ----- -----
  +--> ?PR?LEDSP__LEDS__LED0ON?APP

LEDSP__LEDS__LED0ON/APP                       ----- -----
  +--> ?PR?LEDSP__LED0__CLR?APP

LEDSP__LED0__CLR/APP                          ----- -----
  +--> ?PR?REVERSEGPIOP__0__OUT__CLR?APP

REVERSEGPIOP__0__OUT__CLR/APP                 ----- -----
  +--> ?PR?REVERSEGPIOP__0__IN__SET?APP

REVERSEGPIOP__0__IN__SET/APP                  ----- -----
  +--> ?PR?HPLMCS51GENERALIOC__P20__SET?APP

HPLMCS51GENERALIOC__P20__SET/APP              ----- -----

REALMAINP__SCHEDULER__TASKLOOP/APP            ----- -----
  +--> ?PR?SCHEDULERBASICP__SCHEDULER__TASKL...

SCHEDULERBASICP__SCHEDULER__TASKLOOP/APP      E001H E002H
  +--> ?PR?__NESC_ATOMIC_START?APP
  +--> ?PR?SCHEDULERBASICP__POPTASK?APP
  +--> ?PR?SCHEDULERBASICP__MCUSLEEP__SLEEP?APP
  +--> ?PR?___NESC_ATOMIC_END?APP
  +--> ?PR?_SCHEDULERBASICP__TASKBASIC__RUNT...

SCHEDULERBASICP__MCUSLEEP__SLEEP/APP          ----- -----
  +--> ?PR?MCUSLEEPC__MCUSLEEP__SLEEP?APP

MCUSLEEPC__MCUSLEEP__SLEEP/APP                ----- -----
  +--> ?PR?__NESC_ENABLE_INTERRUPT?APP
  +--> ?PR?__NESC_DISABLE_INTERRUPT?APP

__NESC_DISABLE_INTERRUPT/APP                  ----- -----

?C_INITSEG                                    ----- -----

*** NEW ROOT ********************************

__VECTOR_2/APP                                ----- -----
  +--> ?PR?_HALCC2430SIMPLEUARTP__UART0__GET...

_HALCC2430SIMPLEUARTP__UART0__GET/APP         ----- -----
  +--> ?PR?_ECHOP__UART0__GET?APP

_ECHOP__UART0__GET/APP                        ----- -----
  +--> ?PR?ECHOP__LEDS__LED0TOGGLE?APP
  +--> ?PR?ECHOP__LEDS__LED1TOGGLE?APP
  +--> ?PR?ECHOP__LEDS__LED2TOGGLE?APP
  +--> ?PR?ECHOP__PRINT__POSTTASK?APP

ECHOP__LEDS__LED0TOGGLE/APP                   ----- -----
  +--> ?PR?LEDSP__LEDS__LED0TOGGLE?APP

LX51 LINKER/LOCATER V4.17                                                             09/20/2014  13:14:45  PAGE 6


LEDSP__LEDS__LED0TOGGLE/APP                   ----- -----
  +--> ?PR?LEDSP__LED0__TOGGLE?APP

LEDSP__LED0__TOGGLE/APP                       ----- -----
  +--> ?PR?REVERSEGPIOP__0__OUT__TOGGLE?APP

REVERSEGPIOP__0__OUT__TOGGLE/APP              E004H E004H
  +--> ?PR?__NESC_ATOMIC_START?APP
  +--> ?PR?REVERSEGPIOP__0__IN__TOGGLE?APP
  +--> ?PR?___NESC_ATOMIC_END?APP

REVERSEGPIOP__0__IN__TOGGLE/APP               ----- -----
  +--> ?PR?HPLMCS51GENERALIOC__P20__TOGGLE?APP

HPLMCS51GENERALIOC__P20__TOGGLE/APP           ----- -----

ECHOP__LEDS__LED1TOGGLE/APP                   ----- -----
  +--> ?PR?LEDSP__LEDS__LED1TOGGLE?APP

LEDSP__LEDS__LED1TOGGLE/APP                   ----- -----
  +--> ?PR?LEDSP__LED1__TOGGLE?APP

LEDSP__LED1__TOGGLE/APP                       ----- -----
  +--> ?PR?NOPINC__0__GENERALIO__TOGGLE?APP

NOPINC__0__GENERALIO__TOGGLE/APP              ----- -----

ECHOP__LEDS__LED2TOGGLE/APP                   ----- -----
  +--> ?PR?LEDSP__LEDS__LED2TOGGLE?APP

LEDSP__LEDS__LED2TOGGLE/APP                   ----- -----
  +--> ?PR?LEDSP__LED2__TOGGLE?APP

LEDSP__LED2__TOGGLE/APP                       ----- -----
  +--> ?PR?REVERSEGPIOP__1__OUT__TOGGLE?APP

REVERSEGPIOP__1__OUT__TOGGLE/APP              E004H E004H
  +--> ?PR?__NESC_ATOMIC_START?APP
  +--> ?PR?REVERSEGPIOP__1__IN__TOGGLE?APP
  +--> ?PR?___NESC_ATOMIC_END?APP

REVERSEGPIOP__1__IN__TOGGLE/APP               ----- -----
  +--> ?PR?HPLMCS51GENERALIOC__P13__TOGGLE?APP

HPLMCS51GENERALIOC__P13__TOGGLE/APP           ----- -----

ECHOP__PRINT__POSTTASK/APP                    ----- -----
  +--> ?PR?_SCHEDULERBASICP__TASKBASIC__POST...

_SCHEDULERBASICP__TASKBASIC__POSTTASK...      E004H E005H
  +--> ?PR?__NESC_ATOMIC_START?APP
  +--> ?PR?_SCHEDULERBASICP__PUSHTASK?APP
  +--> ?PR?___NESC_ATOMIC_END?APP

_SCHEDULERBASICP__PUSHTASK/APP                ----- -----
  +--> ?PR?_SCHEDULERBASICP__ISWAITING?APP

_SCHEDULERBASICP__ISWAITING/APP               ----- -----

*** NEW ROOT ********************************

__VECTOR_7/APP                                E006H E006H
  +--> ?PR?__NESC_ATOMIC_START?APP
  +--> ?PR?___NESC_ATOMIC_END?APP
  +--> ?PR?HALCC2430SIMPLEUARTP__UART0__PUTD...
LX51 LINKER/LOCATER V4.17                                                             09/20/2014  13:14:45  PAGE 7



HALCC2430SIMPLEUARTP__UART0__PUTDONE/APP      ----- -----
  +--> ?PR?ECHOP__UART0__PUTDONE?APP

ECHOP__UART0__PUTDONE/APP                     ----- -----



PUBLIC SYMBOLS OF MODULE:  APP (?C_STARTUP)


      VALUE       CLASS    TYPE      PUBLIC SYMBOL NAME
      =================================================
      00000000H   NUMBER   ---       ?C?CODESEG
      01000178H   CODE     ---       ?C?MEMSET
      00000000H   NUMBER   ---       ?C?XDATASEG
      01000085H   CODE     ---       ?C_START
      01000000H   CODE     ---       ?C_STARTUP
      0100030EH   CODE     ---       ___NESC_ATOMIC_END
      010002FEH   CODE     ---       __NESC_ATOMIC_START
      01000016H   CODE     ---       __VECTOR_2
      010000CAH   CODE     ---       __VECTOR_7
      0200E009H   XDATA    ---       ECHOP__BUF
      01000145H   CODE     ---       MAIN
      0200E00AH   XDATA    ---       SCHEDULERBASICP__M_HEAD
      0200E008H   XDATA    ---       SCHEDULERBASICP__M_NEXT
      0200E007H   XDATA    ---       SCHEDULERBASICP__M_TAIL



SYMBOL TABLE OF MODULE:  APP (?C_STARTUP)

      VALUE       REP       CLASS    TYPE      SYMBOL NAME
      ====================================================
      ---         MODULE    ---      ---       ?C_STARTUP
      01000000H   PUBLIC    CODE     ---       ?C_STARTUP
      000000E0H   SYMBOL    DATA     ---       ACC
      000000F0H   SYMBOL    DATA     ---       B
      00000083H   SYMBOL    DATA     ---       DPH
      00000082H   SYMBOL    DATA     ---       DPL
      00000000H   SYMBOL    NUMBER   ---       IBPSTACK
      00000100H   SYMBOL    NUMBER   ---       IBPSTACKTOP
      00000080H   SYMBOL    NUMBER   ---       IDATALEN
      01000041H   SYMBOL    CODE     ---       IDATALOOP
      00000000H   SYMBOL    NUMBER   ---       PBPSTACK
      00000100H   SYMBOL    NUMBER   ---       PBPSTACKTOP
      00000000H   SYMBOL    NUMBER   ---       PDATALEN
      00000000H   SYMBOL    NUMBER   ---       PDATASTART
      00000000H   SYMBOL    NUMBER   ---       PPAGE
      00000000H   SYMBOL    NUMBER   ---       PPAGEENABLE
      000000A0H   SYMBOL    DATA     ---       PPAGE_SFR
      00000081H   SYMBOL    DATA     ---       SP
      0100003EH   SYMBOL    CODE     ---       STARTUP1
      00000000H   SYMBOL    NUMBER   ---       XBPSTACK
      00000000H   SYMBOL    NUMBER   ---       XBPSTACKTOP
      00000000H   SYMBOL    NUMBER   ---       XDATALEN
      00000000H   SYMBOL    NUMBER   ---       XDATASTART
      01000000H   LINE      CODE     ---       #126
      0100003EH   LINE      CODE     ---       #133
      01000040H   LINE      CODE     ---       #134
      01000041H   LINE      CODE     ---       #135
      01000042H   LINE      CODE     ---       #136
      01000044H   LINE      CODE     ---       #185
      01000047H   LINE      CODE     ---       #196

LX51 LINKER/LOCATER V4.17                                                             09/20/2014  13:14:45  PAGE 8


      ---         MODULE    ---      ---       APP
      0200E00AH   PUBLIC    XDATA    ---       SCHEDULERBASICP__M_HEAD
      0200E009H   PUBLIC    XDATA    ---       ECHOP__BUF
      0200E008H   PUBLIC    XDATA    ---       SCHEDULERBASICP__M_NEXT
      0200E007H   PUBLIC    XDATA    ---       SCHEDULERBASICP__M_TAIL
      010000CAH   PUBLIC    CODE     ---       __VECTOR_7
      01000016H   PUBLIC    CODE     ---       __VECTOR_2
      01000145H   PUBLIC    CODE     ---       MAIN
      0100030EH   PUBLIC    CODE     ---       ___NESC_ATOMIC_END
      010002FEH   PUBLIC    CODE     ---       __NESC_ATOMIC_START

      ---         MODULE    ---      ---       ?C_INIT
      01000085H   PUBLIC    CODE     ---       ?C_START

      ---         MODULE    ---      ---       ?C?MEMSET
      01000178H   PUBLIC    CODE     ---       ?C?MEMSET



FUNCTION REGISTER MASKS


FUNCTION . . . . . . . . . REG MASK
====================================

___NESC_ATOMIC_END . . . . @0x18000800
__NESC_ATOMIC_START. . . . @0x18000880
__VECTOR_2 . . . . . . . . @0x1e0008c0
__VECTOR_7 . . . . . . . . @0x1e0008b0

Program Size: data=9.0 xdata=11 const=0 code=969
LX51 RUN COMPLETE.  0 WARNING(S),  0 ERROR(S)
